---
triple:          'x86_64-apple-darwin'
binary-path:     '/Users/mauricioapaza/Desktop/AlgGen/raya'
relocations:
  - { offsetInCU: 0x681B, offset: 0x681B, size: 0x8, addend: 0x0, symName: __ZNSt3__124__put_character_sequenceB7v160006IcNS_11char_traitsIcEEEERNS_13basic_ostreamIT_T0_EES7_PKS4_m, symObjAddr: 0x6150, symBinAddr: 0x100009FE0, symSize: 0x1F0 }
  - { offsetInCU: 0x9839, offset: 0x9839, size: 0x8, addend: 0x0, symName: __ZNSt3__1lsB7v160006INS_11char_traitsIcEEEERNS_13basic_ostreamIcT_EES6_PKc, symObjAddr: 0x7F0, symBinAddr: 0x100004680, symSize: 0x40 }
  - { offsetInCU: 0x987F, offset: 0x987F, size: 0x8, addend: 0x0, symName: __ZNSt3__14endlB7v160006IcNS_11char_traitsIcEEEERNS_13basic_ostreamIT_T0_EES7_, symObjAddr: 0x850, symBinAddr: 0x1000046E0, symSize: 0x50 }
  - { offsetInCU: 0x98BF, offset: 0x98BF, size: 0x8, addend: 0x0, symName: __ZNSt3__1lsB7v160006INS_11char_traitsIcEEEERNS_13basic_ostreamIcT_EES6_c, symObjAddr: 0x8A0, symBinAddr: 0x100004730, symSize: 0x30 }
  - { offsetInCU: 0x9AE9, offset: 0x9AE9, size: 0x8, addend: 0x0, symName: __ZNSt3__119__debug_db_insert_cB7v160006INS_6vectorINS1_IP7tableroNS_9allocatorIS3_EEEENS4_IS6_EEEEEEvPT_, symObjAddr: 0x1EB0, symBinAddr: 0x100005D40, symSize: 0x10 }
  - { offsetInCU: 0x9B1A, offset: 0x9B1A, size: 0x8, addend: 0x0, symName: __ZNSt3__119__debug_db_insert_cB7v160006INS_6vectorIP7tableroNS_9allocatorIS3_EEEEEEvPT_, symObjAddr: 0x2000, symBinAddr: 0x100005E90, symSize: 0x10 }
  - { offsetInCU: 0x9B4B, offset: 0x9B4B, size: 0x8, addend: 0x0, symName: __ZNSt3__112__to_addressB7v160006IP7tableroEEPT_S4_, symObjAddr: 0x22F0, symBinAddr: 0x100006180, symSize: 0x10 }
  - { offsetInCU: 0x9B80, offset: 0x9B80, size: 0x8, addend: 0x0, symName: __ZNSt3__13maxB7v160006ImEERKT_S3_S3_, symObjAddr: 0x26D0, symBinAddr: 0x100006560, symSize: 0x30 }
  - { offsetInCU: 0x9BC3, offset: 0x9BC3, size: 0x8, addend: 0x0, symName: __ZNSt3__13minB7v160006ImEERKT_S3_S3_, symObjAddr: 0x2700, symBinAddr: 0x100006590, symSize: 0x30 }
  - { offsetInCU: 0x9E07, offset: 0x9E07, size: 0x8, addend: 0x0, symName: __ZNSt3__13minB7v160006ImNS_6__lessImmEEEERKT_S5_S5_T0_, symObjAddr: 0x2780, symBinAddr: 0x100006610, symSize: 0x50 }
  - { offsetInCU: 0x9E9C, offset: 0x9E9C, size: 0x8, addend: 0x0, symName: __ZNSt3__120__throw_length_errorB7v160006EPKc, symObjAddr: 0x2860, symBinAddr: 0x1000066F0, symSize: 0x70 }
  - { offsetInCU: 0x9EC4, offset: 0x9EC4, size: 0x8, addend: 0x0, symName: __ZNSt3__13maxB7v160006ImNS_6__lessImmEEEERKT_S5_S5_T0_, symObjAddr: 0x2990, symBinAddr: 0x100006820, symSize: 0x50 }
  - { offsetInCU: 0x9F1E, offset: 0x9F1E, size: 0x8, addend: 0x0, symName: __ZNSt3__119__allocate_at_leastB7v160006INS_9allocatorIP7tableroEEEENS_19__allocation_resultINS_16allocator_traitsIT_E7pointerEEERS7_m, symObjAddr: 0x2AE0, symBinAddr: 0x100006970, symSize: 0x40 }
  - { offsetInCU: 0x9F61, offset: 0x9F61, size: 0x8, addend: 0x0, symName: __ZNSt3__117__libcpp_allocateB7v160006Emm, symObjAddr: 0x2C50, symBinAddr: 0x100006AE0, symSize: 0x20 }
  - { offsetInCU: 0x9F9E, offset: 0x9F9E, size: 0x8, addend: 0x0, symName: __ZNSt3__121__libcpp_operator_newB7v160006IJmEEEPvDpT_, symObjAddr: 0x2C70, symBinAddr: 0x100006B00, symSize: 0x20 }
  - { offsetInCU: 0x9FD7, offset: 0x9FD7, size: 0x8, addend: 0x0, symName: __ZNSt3__142__uninitialized_allocator_move_if_noexceptB7v160006INS_9allocatorIP7tableroEENS_16reverse_iteratorIPS3_EES7_S3_vEET1_RT_T0_SB_S8_, symObjAddr: 0x2DA0, symBinAddr: 0x100006C30, symSize: 0x70 }
  - { offsetInCU: 0xA053, offset: 0xA053, size: 0x8, addend: 0x0, symName: __ZNSt3__14swapB7v160006IPP7tableroEENS_9enable_ifIXaasr21is_move_constructibleIT_EE5valuesr18is_move_assignableIS5_EE5valueEvE4typeERS5_S8_, symObjAddr: 0x2E60, symBinAddr: 0x100006CF0, symSize: 0x40 }
  - { offsetInCU: 0xA0A4, offset: 0xA0A4, size: 0x8, addend: 0x0, symName: __ZNSt3__125__debug_db_invalidate_allB7v160006INS_6vectorIP7tableroNS_9allocatorIS3_EEEEEEvPT_, symObjAddr: 0x2F50, symBinAddr: 0x100006DE0, symSize: 0x10 }
  - { offsetInCU: 0xA0D5, offset: 0xA0D5, size: 0x8, addend: 0x0, symName: __ZNSt3__14moveB7v160006INS_16reverse_iteratorIPP7tableroEES5_EET0_T_S7_S6_, symObjAddr: 0x2FA0, symBinAddr: 0x100006E30, symSize: 0x80 }
  - { offsetInCU: 0xA12F, offset: 0xA12F, size: 0x8, addend: 0x0, symName: __ZNSt3__16__moveB7v160006INS_17_ClassicAlgPolicyENS_16reverse_iteratorIPP7tableroEES6_S6_EENS_4pairIT0_T2_EES8_T1_S9_, symObjAddr: 0x3020, symBinAddr: 0x100006EB0, symSize: 0x90 }
  - { offsetInCU: 0xA19B, offset: 0xA19B, size: 0x8, addend: 0x0, symName: __ZNSt3__123__dispatch_copy_or_moveB7v160006INS_17_ClassicAlgPolicyENS_11__move_loopIS1_EENS_14__move_trivialENS_16reverse_iteratorIPP7tableroEES9_S9_EENS_4pairIT2_T4_EESB_T3_SC_, symObjAddr: 0x30B0, symBinAddr: 0x100006F40, symSize: 0x90 }
  - { offsetInCU: 0xA219, offset: 0xA219, size: 0x8, addend: 0x0, symName: __ZNSt3__121__unwrap_and_dispatchB7v160006INS_10__overloadINS_11__move_loopINS_17_ClassicAlgPolicyEEENS_14__move_trivialEEENS_16reverse_iteratorIPP7tableroEESB_SB_Li0EEENS_4pairIT0_T2_EESD_T1_SE_, symObjAddr: 0x3140, symBinAddr: 0x100006FD0, symSize: 0x210 }
  - { offsetInCU: 0xA2A8, offset: 0xA2A8, size: 0x8, addend: 0x0, symName: __ZNSt3__114__unwrap_rangeB7v160006INS_16reverse_iteratorIPP7tableroEES5_EENS_4pairIT0_S7_EET_S9_, symObjAddr: 0x3350, symBinAddr: 0x1000071E0, symSize: 0x90 }
  - { offsetInCU: 0xA423, offset: 0xA423, size: 0x8, addend: 0x0, symName: __ZNSt3__113__unwrap_iterB7v160006INS_16reverse_iteratorIPP7tableroEENS_18__unwrap_iter_implIS5_Lb0EEELi0EEEDTclsrT0_8__unwrapclsr3stdE7declvalIT_EEEES9_, symObjAddr: 0x3480, symBinAddr: 0x100007310, symSize: 0x40 }
  - { offsetInCU: 0xA467, offset: 0xA467, size: 0x8, addend: 0x0, symName: __ZNSt3__19make_pairB7v160006INS_16reverse_iteratorIPP7tableroEES5_EENS_4pairINS_18__unwrap_ref_decayIT_E4typeENS7_IT0_E4typeEEEOS8_OSB_, symObjAddr: 0x34C0, symBinAddr: 0x100007350, symSize: 0x30 }
  - { offsetInCU: 0xA4B6, offset: 0xA4B6, size: 0x8, addend: 0x0, symName: __ZNSt3__114__rewrap_rangeB7v160006INS_16reverse_iteratorIPP7tableroEES5_EET_S6_T0_, symObjAddr: 0x34F0, symBinAddr: 0x100007380, symSize: 0x60 }
  - { offsetInCU: 0xA502, offset: 0xA502, size: 0x8, addend: 0x0, symName: __ZNSt3__113__rewrap_iterB7v160006INS_16reverse_iteratorIPP7tableroEES5_NS_18__unwrap_iter_implIS5_Lb0EEEEET_S8_T0_, symObjAddr: 0x3550, symBinAddr: 0x1000073E0, symSize: 0x70 }
  - { offsetInCU: 0xA557, offset: 0xA557, size: 0x8, addend: 0x0, symName: __ZNSt3__1neB7v160006IPP7tableroS3_EEbRKNS_16reverse_iteratorIT_EERKNS4_IT0_EE, symObjAddr: 0x35C0, symBinAddr: 0x100007450, symSize: 0x40 }
  - { offsetInCU: 0xA655, offset: 0xA655, size: 0x8, addend: 0x0, symName: __ZNSt3__119__libcpp_deallocateB7v160006EPvmm, symObjAddr: 0x3990, symBinAddr: 0x100007820, symSize: 0x30 }
  - { offsetInCU: 0xA69D, offset: 0xA69D, size: 0x8, addend: 0x0, symName: __ZNSt3__127__do_deallocate_handle_sizeB7v160006IJEEEvPvmDpT_, symObjAddr: 0x39C0, symBinAddr: 0x100007850, symSize: 0x20 }
  - { offsetInCU: 0xA6DB, offset: 0xA6DB, size: 0x8, addend: 0x0, symName: __ZNSt3__124__libcpp_operator_deleteB7v160006IJPvEEEvDpT_, symObjAddr: 0x39E0, symBinAddr: 0x100007870, symSize: 0x20 }
  - { offsetInCU: 0xA710, offset: 0xA710, size: 0x8, addend: 0x0, symName: __ZNSt3__112__to_addressB7v160006INS_6vectorIP7tableroNS_9allocatorIS3_EEEEEEPT_S8_, symObjAddr: 0x3C70, symBinAddr: 0x100007B00, symSize: 0x10 }
  - { offsetInCU: 0xA745, offset: 0xA745, size: 0x8, addend: 0x0, symName: __ZNSt3__122__make_exception_guardB7v160006INS_6vectorIP7tableroNS_9allocatorIS3_EEE16__destroy_vectorEEENS_28__exception_guard_exceptionsIT_EES9_, symObjAddr: 0x3E90, symBinAddr: 0x100007D20, symSize: 0x40 }
  - { offsetInCU: 0xA77A, offset: 0xA77A, size: 0x8, addend: 0x0, symName: __ZNSt3__130__uninitialized_allocator_copyB7v160006INS_9allocatorIP7tableroEEPS3_S5_S5_EET2_RT_T0_T1_S6_, symObjAddr: 0x4130, symBinAddr: 0x100007FC0, symSize: 0x100 }
  - { offsetInCU: 0xA818, offset: 0xA818, size: 0x8, addend: 0x0, symName: __ZNSt3__122__make_exception_guardB7v160006INS_29_AllocatorDestroyRangeReverseINS_9allocatorIP7tableroEEPS4_EEEENS_28__exception_guard_exceptionsIT_EES9_, symObjAddr: 0x4230, symBinAddr: 0x1000080C0, symSize: 0x60 }
  - { offsetInCU: 0xA84D, offset: 0xA84D, size: 0x8, addend: 0x0, symName: __ZNSt3__119__allocator_destroyB7v160006INS_9allocatorIP7tableroEENS_16reverse_iteratorIPS3_EES7_EEvRT_T0_T1_, symObjAddr: 0x44B0, symBinAddr: 0x100008340, symSize: 0x70 }
  - { offsetInCU: 0xA8B0, offset: 0xA8B0, size: 0x8, addend: 0x0, symName: __ZNSt3__112__to_addressB7v160006INS_16reverse_iteratorIPP7tableroEEvEENS_5decayIDTclsr19__to_address_helperIT_EE6__callclsr3stdE7declvalIRKS7_EEEEE4typeES9_, symObjAddr: 0x4520, symBinAddr: 0x1000083B0, symSize: 0x20 }
  - { offsetInCU: 0xA90F, offset: 0xA90F, size: 0x8, addend: 0x0, symName: __ZNSt3__118__debug_db_erase_cB7v160006INS_6vectorIP7tableroNS_9allocatorIS3_EEEEEEvPT_, symObjAddr: 0x4670, symBinAddr: 0x100008500, symSize: 0x10 }
  - { offsetInCU: 0xA940, offset: 0xA940, size: 0x8, addend: 0x0, symName: __ZNSt3__119__allocate_at_leastB7v160006INS_9allocatorINS_6vectorIP7tableroNS1_IS4_EEEEEEEENS_19__allocation_resultINS_16allocator_traitsIT_E7pointerEEERSA_m, symObjAddr: 0x4C60, symBinAddr: 0x100008AF0, symSize: 0x40 }
  - { offsetInCU: 0xA983, offset: 0xA983, size: 0x8, addend: 0x0, symName: __ZNSt3__142__uninitialized_allocator_move_if_noexceptB7v160006INS_9allocatorINS_6vectorIP7tableroNS1_IS4_EEEEEENS_16reverse_iteratorIPS6_EESA_SA_EET2_RT_T0_T1_SB_, symObjAddr: 0x4EA0, symBinAddr: 0x100008D30, symSize: 0x180 }
  - { offsetInCU: 0xAA22, offset: 0xAA22, size: 0x8, addend: 0x0, symName: __ZNSt3__14swapB7v160006IPNS_6vectorIP7tableroNS_9allocatorIS3_EEEEEENS_9enable_ifIXaasr21is_move_constructibleIT_EE5valuesr18is_move_assignableIS9_EE5valueEvE4typeERS9_SC_, symObjAddr: 0x5070, symBinAddr: 0x100008F00, symSize: 0x40 }
  - { offsetInCU: 0xAA73, offset: 0xAA73, size: 0x8, addend: 0x0, symName: __ZNSt3__125__debug_db_invalidate_allB7v160006INS_6vectorINS1_IP7tableroNS_9allocatorIS3_EEEENS4_IS6_EEEEEEvPT_, symObjAddr: 0x5150, symBinAddr: 0x100008FE0, symSize: 0x10 }
  - { offsetInCU: 0xAAA4, offset: 0xAAA4, size: 0x8, addend: 0x0, symName: __ZNSt3__122__make_exception_guardB7v160006INS_29_AllocatorDestroyRangeReverseINS_9allocatorINS_6vectorIP7tableroNS2_IS5_EEEEEENS_16reverse_iteratorIPS7_EEEEEENS_28__exception_guard_exceptionsIT_EESE_, symObjAddr: 0x51A0, symBinAddr: 0x100009030, symSize: 0x60 }
  - { offsetInCU: 0xAAD9, offset: 0xAAD9, size: 0x8, addend: 0x0, symName: __ZNSt3__1neB7v160006IPNS_6vectorIP7tableroNS_9allocatorIS3_EEEES7_EEbRKNS_16reverse_iteratorIT_EERKNS8_IT0_EE, symObjAddr: 0x5240, symBinAddr: 0x1000090D0, symSize: 0x40 }
  - { offsetInCU: 0xAB25, offset: 0xAB25, size: 0x8, addend: 0x0, symName: __ZNSt3__112__to_addressB7v160006INS_16reverse_iteratorIPNS_6vectorIP7tableroNS_9allocatorIS4_EEEEEEvEENS_5decayIDTclsr19__to_address_helperIT_EE6__callclsr3stdE7declvalIRKSB_EEEEE4typeESD_, symObjAddr: 0x52B0, symBinAddr: 0x100009140, symSize: 0x20 }
  - { offsetInCU: 0xAB5B, offset: 0xAB5B, size: 0x8, addend: 0x0, symName: __ZNSt3__115__debug_db_swapB7v160006INS_6vectorIP7tableroNS_9allocatorIS3_EEEEEEvPT_S8_, symObjAddr: 0x5550, symBinAddr: 0x1000093E0, symSize: 0x10 }
  - { offsetInCU: 0xABC3, offset: 0xABC3, size: 0x8, addend: 0x0, symName: __ZNSt3__119__allocator_destroyB7v160006INS_9allocatorINS_6vectorIP7tableroNS1_IS4_EEEEEENS_16reverse_iteratorINS8_IPS6_EEEESB_EEvRT_T0_T1_, symObjAddr: 0x56F0, symBinAddr: 0x100009580, symSize: 0x70 }
  - { offsetInCU: 0xAC26, offset: 0xAC26, size: 0x8, addend: 0x0, symName: __ZNSt3__1neB7v160006INS_16reverse_iteratorIPNS_6vectorIP7tableroNS_9allocatorIS4_EEEEEES9_EEbRKNS1_IT_EERKNS1_IT0_EE, symObjAddr: 0x5790, symBinAddr: 0x100009620, symSize: 0x50 }
  - { offsetInCU: 0xAC72, offset: 0xAC72, size: 0x8, addend: 0x0, symName: __ZNSt3__112__to_addressB7v160006INS_16reverse_iteratorINS1_IPNS_6vectorIP7tableroNS_9allocatorIS4_EEEEEEEEvEENS_5decayIDTclsr19__to_address_helperIT_EE6__callclsr3stdE7declvalIRKSC_EEEEE4typeESE_, symObjAddr: 0x5810, symBinAddr: 0x1000096A0, symSize: 0x20 }
  - { offsetInCU: 0xACD1, offset: 0xACD1, size: 0x8, addend: 0x0, symName: __ZNSt3__118__debug_db_erase_cB7v160006INS_6vectorINS1_IP7tableroNS_9allocatorIS3_EEEENS4_IS6_EEEEEEvPT_, symObjAddr: 0x5D70, symBinAddr: 0x100009C00, symSize: 0x10 }
  - { offsetInCU: 0xAD02, offset: 0xAD02, size: 0x8, addend: 0x0, symName: __ZNSt3__116__pad_and_outputB7v160006IcNS_11char_traitsIcEEEENS_19ostreambuf_iteratorIT_T0_EES6_PKS4_S8_S8_RNS_8ios_baseES4_, symObjAddr: 0x6390, symBinAddr: 0x10000A220, symSize: 0x220 }
  - { offsetInCU: 0xADD2, offset: 0xADD2, size: 0x8, addend: 0x0, symName: __ZNSt3__119__debug_db_insert_cB7v160006INS_12basic_stringIcNS_11char_traitsIcEENS_9allocatorIcEEEEEEvPT_, symObjAddr: 0x6820, symBinAddr: 0x10000A6B0, symSize: 0x10 }
  - { offsetInCU: 0xAE03, offset: 0xAE03, size: 0x8, addend: 0x0, symName: __ZNSt3__112__to_addressB7v160006IKcEEPT_S3_, symObjAddr: 0x68C0, symBinAddr: 0x10000A750, symSize: 0x10 }
  - { offsetInCU: 0xAE6B, offset: 0xAE6B, size: 0x8, addend: 0x0, symName: __ZNSt3__19use_facetB7v160006INS_5ctypeIcEEEERKT_RKNS_6localeE, symObjAddr: 0x6B20, symBinAddr: 0x10000A9B0, symSize: 0x30 }
  - { offsetInCU: 0xB33A, offset: 0xB33A, size: 0x8, addend: 0x0, symName: __ZNSt3__118__constexpr_strlenB7v160006EPKc, symObjAddr: 0x6BB0, symBinAddr: 0x10000AA40, symSize: 0x20 }
  - { offsetInCU: 0xB763, offset: 0xB763, size: 0x8, addend: 0x0, symName: __ZNSt3__122__libcpp_thread_createB7v160006EPP17_opaque_pthread_tPFPvS3_ES3_, symObjAddr: 0x6DC0, symBinAddr: 0x10000AC50, symSize: 0x30 }
  - { offsetInCU: 0xB7AF, offset: 0xB7AF, size: 0x8, addend: 0x0, symName: __ZNSt3__114__thread_proxyB7v160006INS_5tupleIJNS_10unique_ptrINS_15__thread_structENS_14default_deleteIS3_EEEEM7tableroFvvEPS7_EEEEEPvSC_, symObjAddr: 0x6DF0, symBinAddr: 0x10000AC80, symSize: 0xA0 }
  - { offsetInCU: 0xB915, offset: 0xB915, size: 0x8, addend: 0x0, symName: __ZNSt3__13getB7v160006ILm0EJNS_10unique_ptrINS_15__thread_structENS_14default_deleteIS2_EEEEM7tableroFvvEPS6_EEERNS_13tuple_elementIXT_ENS_5tupleIJDpT0_EEEE4typeERSE_, symObjAddr: 0x7470, symBinAddr: 0x10000B300, symSize: 0x20 }
  - { offsetInCU: 0xB962, offset: 0xB962, size: 0x8, addend: 0x0, symName: __ZNSt3__116__thread_executeB7v160006INS_10unique_ptrINS_15__thread_structENS_14default_deleteIS2_EEEEM7tableroFvvEJPS6_EJLm2EEEEvRNS_5tupleIJT_T0_DpT1_EEENS_15__tuple_indicesIJXspT2_EEEE, symObjAddr: 0x7490, symBinAddr: 0x10000B320, symSize: 0x40 }
  - { offsetInCU: 0xB9C0, offset: 0xB9C0, size: 0x8, addend: 0x0, symName: __ZNSt3__116__libcpp_tls_setB7v160006EmPv, symObjAddr: 0x74D0, symBinAddr: 0x10000B360, symSize: 0x30 }
  - { offsetInCU: 0xB9FD, offset: 0xB9FD, size: 0x8, addend: 0x0, symName: __ZNSt3__18__invokeB7v160006IM7tableroFvvEPS1_JEvEEDTcldsdeclsr3stdE7declvalIT0_EEclsr3stdE7declvalIT_EEspclsr3stdE7declvalIT1_EEEEOS6_OS5_DpOS7_, symObjAddr: 0x7510, symBinAddr: 0x10000B3A0, symSize: 0x70 }
  - { offsetInCU: 0xBA4E, offset: 0xBA4E, size: 0x8, addend: 0x0, symName: __ZNSt3__13getB7v160006ILm1EJNS_10unique_ptrINS_15__thread_structENS_14default_deleteIS2_EEEEM7tableroFvvEPS6_EEERNS_13tuple_elementIXT_ENS_5tupleIJDpT0_EEEE4typeERSE_, symObjAddr: 0x7580, symBinAddr: 0x10000B410, symSize: 0x20 }
  - { offsetInCU: 0xBA9B, offset: 0xBA9B, size: 0x8, addend: 0x0, symName: __ZNSt3__13getB7v160006ILm2EJNS_10unique_ptrINS_15__thread_structENS_14default_deleteIS2_EEEEM7tableroFvvEPS6_EEERNS_13tuple_elementIXT_ENS_5tupleIJDpT0_EEEE4typeERSE_, symObjAddr: 0x75A0, symBinAddr: 0x10000B430, symSize: 0x20 }
  - { offsetInCU: 0xBE57, offset: 0xBE57, size: 0x8, addend: 0x0, symName: __ZSt28__throw_bad_array_new_lengthB7v160006v, symObjAddr: 0x2C10, symBinAddr: 0x100006AA0, symSize: 0x40 }
  - { offsetInCU: 0xC4D6, offset: 0xC4D6, size: 0x8, addend: 0x0, symName: __ZNSt3__16vectorIP7tableroNS_9allocatorIS2_EEE26__swap_out_circular_bufferERNS_14__split_bufferIS2_RS4_EE, symObjAddr: 0x24D0, symBinAddr: 0x100006360, symSize: 0x130 }
  - { offsetInCU: 0xC6D0, offset: 0xC6D0, size: 0x8, addend: 0x0, symName: __ZNSt3__16vectorINS0_IP7tableroNS_9allocatorIS2_EEEENS3_IS5_EEE26__swap_out_circular_bufferERNS_14__split_bufferIS5_RS6_EE, symObjAddr: 0x4880, symBinAddr: 0x100008710, symSize: 0x130 }
  - { offsetInCU: 0xED36, offset: 0xED36, size: 0x8, addend: 0x0, symName: __ZN7tablero7isertarEcii, symObjAddr: 0x0, symBinAddr: 0x100003E90, symSize: 0x40 }
  - { offsetInCU: 0xED87, offset: 0xED87, size: 0x8, addend: 0x0, symName: __ZN7tablero14busqHorizontalEv, symObjAddr: 0x40, symBinAddr: 0x100003ED0, symSize: 0x1B0 }
  - { offsetInCU: 0xEE4E, offset: 0xEE4E, size: 0x8, addend: 0x0, symName: __ZNSt3__110lock_guardINS_5mutexEEC1B7v160006ERS1_, symObjAddr: 0x1F0, symBinAddr: 0x100004080, symSize: 0x30 }
  - { offsetInCU: 0xEE86, offset: 0xEE86, size: 0x8, addend: 0x0, symName: __ZNSt3__110lock_guardINS_5mutexEED1B7v160006Ev, symObjAddr: 0x220, symBinAddr: 0x1000040B0, symSize: 0x20 }
  - { offsetInCU: 0xEEB0, offset: 0xEEB0, size: 0x8, addend: 0x0, symName: __ZN7tablero12busqVerticalEv, symObjAddr: 0x240, symBinAddr: 0x1000040D0, symSize: 0x1B0 }
  - { offsetInCU: 0xEF5E, offset: 0xEF5E, size: 0x8, addend: 0x0, symName: __ZN7tablero12busqDiagonalEv, symObjAddr: 0x3F0, symBinAddr: 0x100004280, symSize: 0x2D0 }
  - { offsetInCU: 0xF03C, offset: 0xF03C, size: 0x8, addend: 0x0, symName: __ZN7tablero15imprimirTableroEv, symObjAddr: 0x6C0, symBinAddr: 0x100004550, symSize: 0x130 }
  - { offsetInCU: 0xF0BA, offset: 0xF0BA, size: 0x8, addend: 0x0, symName: __ZNSt3__113basic_ostreamIcNS_11char_traitsIcEEElsB7v160006EPFRS3_S4_E, symObjAddr: 0x830, symBinAddr: 0x1000046C0, symSize: 0x20 }
  - { offsetInCU: 0xF0EE, offset: 0xF0EE, size: 0x8, addend: 0x0, symName: __ZN7tablero19buscarPosibilidadesEv, symObjAddr: 0x8D0, symBinAddr: 0x100004760, symSize: 0x150 }
  - { offsetInCU: 0xF205, offset: 0xF205, size: 0x8, addend: 0x0, symName: __ZNSt3__16threadC1IM7tableroFvvEJPS2_EvEEOT_DpOT0_, symObjAddr: 0xA20, symBinAddr: 0x1000048B0, symSize: 0x30 }
  - { offsetInCU: 0xF262, offset: 0xF262, size: 0x8, addend: 0x0, symName: _main, symObjAddr: 0xA50, symBinAddr: 0x1000048E0, symSize: 0x580 }
  - { offsetInCU: 0xF34A, offset: 0xF34A, size: 0x8, addend: 0x0, symName: __ZN7tableroC1Ei, symObjAddr: 0xFD0, symBinAddr: 0x100004E60, symSize: 0x30 }
  - { offsetInCU: 0xF40D, offset: 0xF40D, size: 0x8, addend: 0x0, symName: __ZN6mmTreeC1EP7tableroi, symObjAddr: 0x1000, symBinAddr: 0x100004E90, symSize: 0x30 }
  - { offsetInCU: 0xF453, offset: 0xF453, size: 0x8, addend: 0x0, symName: __ZN6mmTree7genTreeEi, symObjAddr: 0x1030, symBinAddr: 0x100004EC0, symSize: 0x230 }
  - { offsetInCU: 0xF55A, offset: 0xF55A, size: 0x8, addend: 0x0, symName: __ZN6mmTree13selecOPMINMAXEii, symObjAddr: 0x1260, symBinAddr: 0x1000050F0, symSize: 0x7A0 }
  - { offsetInCU: 0xF625, offset: 0xF625, size: 0x8, addend: 0x0, symName: __ZN6mmTreeD1Ev, symObjAddr: 0x1A00, symBinAddr: 0x100005890, symSize: 0x20 }
  - { offsetInCU: 0xF651, offset: 0xF651, size: 0x8, addend: 0x0, symName: __ZN7tableroD1Ev, symObjAddr: 0x1A20, symBinAddr: 0x1000058B0, symSize: 0x20 }
  - { offsetInCU: 0xF67B, offset: 0xF67B, size: 0x8, addend: 0x0, symName: __ZN7tableroC2Ei, symObjAddr: 0x1A40, symBinAddr: 0x1000058D0, symSize: 0x180 }
  - { offsetInCU: 0xF70A, offset: 0xF70A, size: 0x8, addend: 0x0, symName: __ZNSt3__15mutexC1B7v160006Ev, symObjAddr: 0x1BC0, symBinAddr: 0x100005A50, symSize: 0x20 }
  - { offsetInCU: 0xF734, offset: 0xF734, size: 0x8, addend: 0x0, symName: __ZNSt3__15mutexC2B7v160006Ev, symObjAddr: 0x1BE0, symBinAddr: 0x100005A70, symSize: 0x30 }
  - { offsetInCU: 0xF75E, offset: 0xF75E, size: 0x8, addend: 0x0, symName: __ZN6mmTreeC2EP7tableroi, symObjAddr: 0x1C10, symBinAddr: 0x100005AA0, symSize: 0xC0 }
  - { offsetInCU: 0xF7B8, offset: 0xF7B8, size: 0x8, addend: 0x0, symName: __ZNSt3__16vectorINS0_IP7tableroNS_9allocatorIS2_EEEENS3_IS5_EEEC1B7v160006Ev, symObjAddr: 0x1CD0, symBinAddr: 0x100005B60, symSize: 0x20 }
  - { offsetInCU: 0xF7E2, offset: 0xF7E2, size: 0x8, addend: 0x0, symName: __ZNSt3__16vectorIP7tableroNS_9allocatorIS2_EEEC1B7v160006Ev, symObjAddr: 0x1CF0, symBinAddr: 0x100005B80, symSize: 0x20 }
  - { offsetInCU: 0xF80C, offset: 0xF80C, size: 0x8, addend: 0x0, symName: __ZNSt3__16vectorIP7tableroNS_9allocatorIS2_EEE9push_backB7v160006ERKS2_, symObjAddr: 0x1D10, symBinAddr: 0x100005BA0, symSize: 0x60 }
  - { offsetInCU: 0xF842, offset: 0xF842, size: 0x8, addend: 0x0, symName: __ZNSt3__16vectorINS0_IP7tableroNS_9allocatorIS2_EEEENS3_IS5_EEE9push_backB7v160006ERKS5_, symObjAddr: 0x1D70, symBinAddr: 0x100005C00, symSize: 0x60 }
  - { offsetInCU: 0xF878, offset: 0xF878, size: 0x8, addend: 0x0, symName: __ZNSt3__16vectorIP7tableroNS_9allocatorIS2_EEED1B7v160006Ev, symObjAddr: 0x1DD0, symBinAddr: 0x100005C60, symSize: 0x20 }
  - { offsetInCU: 0xF8A2, offset: 0xF8A2, size: 0x8, addend: 0x0, symName: __ZNSt3__16vectorINS0_IP7tableroNS_9allocatorIS2_EEEENS3_IS5_EEED1B7v160006Ev, symObjAddr: 0x1DF0, symBinAddr: 0x100005C80, symSize: 0x20 }
  - { offsetInCU: 0xF8CC, offset: 0xF8CC, size: 0x8, addend: 0x0, symName: __ZNSt3__16vectorINS0_IP7tableroNS_9allocatorIS2_EEEENS3_IS5_EEEC2B7v160006Ev, symObjAddr: 0x1E10, symBinAddr: 0x100005CA0, symSize: 0x60 }
  - { offsetInCU: 0xF900, offset: 0xF900, size: 0x8, addend: 0x0, symName: __ZNSt3__117__compressed_pairIPNS_6vectorIP7tableroNS_9allocatorIS3_EEEENS4_IS6_EEEC1B7v160006IDnNS_18__default_init_tagEEEOT_OT0_, symObjAddr: 0x1E70, symBinAddr: 0x100005D00, symSize: 0x30 }
  - { offsetInCU: 0xF958, offset: 0xF958, size: 0x8, addend: 0x0, symName: __ZNSt3__117__compressed_pairIPNS_6vectorIP7tableroNS_9allocatorIS3_EEEENS4_IS6_EEEC2B7v160006IDnNS_18__default_init_tagEEEOT_OT0_, symObjAddr: 0x1EC0, symBinAddr: 0x100005D50, symSize: 0x40 }
  - { offsetInCU: 0xF9B0, offset: 0xF9B0, size: 0x8, addend: 0x0, symName: __ZNSt3__122__compressed_pair_elemIPNS_6vectorIP7tableroNS_9allocatorIS3_EEEELi0ELb0EEC2B7v160006IDnvEEOT_, symObjAddr: 0x1F00, symBinAddr: 0x100005D90, symSize: 0x20 }
  - { offsetInCU: 0xF9F2, offset: 0xF9F2, size: 0x8, addend: 0x0, symName: __ZNSt3__122__compressed_pair_elemINS_9allocatorINS_6vectorIP7tableroNS1_IS4_EEEEEELi1ELb1EEC2B7v160006ENS_18__default_init_tagE, symObjAddr: 0x1F20, symBinAddr: 0x100005DB0, symSize: 0x20 }
  - { offsetInCU: 0xFA27, offset: 0xFA27, size: 0x8, addend: 0x0, symName: __ZNSt3__19allocatorINS_6vectorIP7tableroNS0_IS3_EEEEEC2B7v160006Ev, symObjAddr: 0x1F40, symBinAddr: 0x100005DD0, symSize: 0x20 }
  - { offsetInCU: 0xFA51, offset: 0xFA51, size: 0x8, addend: 0x0, symName: __ZNSt3__116__non_trivial_ifILb1ENS_9allocatorINS_6vectorIP7tableroNS1_IS4_EEEEEEEC2B7v160006Ev, symObjAddr: 0x1F60, symBinAddr: 0x100005DF0, symSize: 0x10 }
  - { offsetInCU: 0xFA7B, offset: 0xFA7B, size: 0x8, addend: 0x0, symName: __ZNSt3__16vectorIP7tableroNS_9allocatorIS2_EEEC2B7v160006Ev, symObjAddr: 0x1F70, symBinAddr: 0x100005E00, symSize: 0x60 }
  - { offsetInCU: 0xFAA5, offset: 0xFAA5, size: 0x8, addend: 0x0, symName: __ZNSt3__117__compressed_pairIPP7tableroNS_9allocatorIS2_EEEC1B7v160006IDnNS_18__default_init_tagEEEOT_OT0_, symObjAddr: 0x1FD0, symBinAddr: 0x100005E60, symSize: 0x30 }
  - { offsetInCU: 0xFAFD, offset: 0xFAFD, size: 0x8, addend: 0x0, symName: __ZNSt3__117__compressed_pairIPP7tableroNS_9allocatorIS2_EEEC2B7v160006IDnNS_18__default_init_tagEEEOT_OT0_, symObjAddr: 0x2010, symBinAddr: 0x100005EA0, symSize: 0x40 }
  - { offsetInCU: 0xFB55, offset: 0xFB55, size: 0x8, addend: 0x0, symName: __ZNSt3__122__compressed_pair_elemIPP7tableroLi0ELb0EEC2B7v160006IDnvEEOT_, symObjAddr: 0x2050, symBinAddr: 0x100005EE0, symSize: 0x20 }
  - { offsetInCU: 0xFB97, offset: 0xFB97, size: 0x8, addend: 0x0, symName: __ZNSt3__122__compressed_pair_elemINS_9allocatorIP7tableroEELi1ELb1EEC2B7v160006ENS_18__default_init_tagE, symObjAddr: 0x2070, symBinAddr: 0x100005F00, symSize: 0x20 }
  - { offsetInCU: 0xFBCC, offset: 0xFBCC, size: 0x8, addend: 0x0, symName: __ZNSt3__19allocatorIP7tableroEC2B7v160006Ev, symObjAddr: 0x2090, symBinAddr: 0x100005F20, symSize: 0x20 }
  - { offsetInCU: 0xFBF6, offset: 0xFBF6, size: 0x8, addend: 0x0, symName: __ZNSt3__116__non_trivial_ifILb1ENS_9allocatorIP7tableroEEEC2B7v160006Ev, symObjAddr: 0x20B0, symBinAddr: 0x100005F40, symSize: 0x10 }
  - { offsetInCU: 0xFC20, offset: 0xFC20, size: 0x8, addend: 0x0, symName: __ZNSt3__16vectorIP7tableroNS_9allocatorIS2_EEE9__end_capB7v160006Ev, symObjAddr: 0x20C0, symBinAddr: 0x100005F50, symSize: 0x20 }
  - { offsetInCU: 0xFC46, offset: 0xFC46, size: 0x8, addend: 0x0, symName: __ZNSt3__16vectorIP7tableroNS_9allocatorIS2_EEE22__construct_one_at_endB7v160006IJRKS2_EEEvDpOT_, symObjAddr: 0x20E0, symBinAddr: 0x100005F70, symSize: 0x90 }
  - { offsetInCU: 0xFC95, offset: 0xFC95, size: 0x8, addend: 0x0, symName: __ZNSt3__16vectorIP7tableroNS_9allocatorIS2_EEE21__push_back_slow_pathIRKS2_EEvOT_, symObjAddr: 0x2170, symBinAddr: 0x100006000, symSize: 0xD0 }
  - { offsetInCU: 0xFCF2, offset: 0xFCF2, size: 0x8, addend: 0x0, symName: __ZNSt3__117__compressed_pairIPP7tableroNS_9allocatorIS2_EEE5firstB7v160006Ev, symObjAddr: 0x2240, symBinAddr: 0x1000060D0, symSize: 0x20 }
  - { offsetInCU: 0xFD18, offset: 0xFD18, size: 0x8, addend: 0x0, symName: __ZNSt3__122__compressed_pair_elemIPP7tableroLi0ELb0EE5__getB7v160006Ev, symObjAddr: 0x2260, symBinAddr: 0x1000060F0, symSize: 0x10 }
  - { offsetInCU: 0xFD57, offset: 0xFD57, size: 0x8, addend: 0x0, symName: __ZNSt3__16vectorIP7tableroNS_9allocatorIS2_EEE21_ConstructTransactionC1B7v160006ERS5_m, symObjAddr: 0x2270, symBinAddr: 0x100006100, symSize: 0x30 }
  - { offsetInCU: 0xFD9F, offset: 0xFD9F, size: 0x8, addend: 0x0, symName: __ZNSt3__116allocator_traitsINS_9allocatorIP7tableroEEE9constructB7v160006IS3_JRKS3_EvEEvRS4_PT_DpOT0_, symObjAddr: 0x22A0, symBinAddr: 0x100006130, symSize: 0x30 }
  - { offsetInCU: 0xFDF6, offset: 0xFDF6, size: 0x8, addend: 0x0, symName: __ZNSt3__16vectorIP7tableroNS_9allocatorIS2_EEE7__allocB7v160006Ev, symObjAddr: 0x22D0, symBinAddr: 0x100006160, symSize: 0x20 }
  - { offsetInCU: 0xFE1C, offset: 0xFE1C, size: 0x8, addend: 0x0, symName: __ZNSt3__16vectorIP7tableroNS_9allocatorIS2_EEE21_ConstructTransactionD1B7v160006Ev, symObjAddr: 0x2300, symBinAddr: 0x100006190, symSize: 0x20 }
  - { offsetInCU: 0xFE46, offset: 0xFE46, size: 0x8, addend: 0x0, symName: __ZNSt3__16vectorIP7tableroNS_9allocatorIS2_EEE21_ConstructTransactionC2B7v160006ERS5_m, symObjAddr: 0x2320, symBinAddr: 0x1000061B0, symSize: 0x40 }
  - { offsetInCU: 0xFE8E, offset: 0xFE8E, size: 0x8, addend: 0x0, symName: __ZNSt3__19allocatorIP7tableroE9constructB7v160006IS2_JRKS2_EEEvPT_DpOT0_, symObjAddr: 0x2360, symBinAddr: 0x1000061F0, symSize: 0x20 }
  - { offsetInCU: 0xFEE4, offset: 0xFEE4, size: 0x8, addend: 0x0, symName: __ZNSt3__117__compressed_pairIPP7tableroNS_9allocatorIS2_EEE6secondB7v160006Ev, symObjAddr: 0x2380, symBinAddr: 0x100006210, symSize: 0x20 }
  - { offsetInCU: 0xFF0A, offset: 0xFF0A, size: 0x8, addend: 0x0, symName: __ZNSt3__122__compressed_pair_elemINS_9allocatorIP7tableroEELi1ELb1EE5__getB7v160006Ev, symObjAddr: 0x23A0, symBinAddr: 0x100006230, symSize: 0x10 }
  - { offsetInCU: 0xFF30, offset: 0xFF30, size: 0x8, addend: 0x0, symName: __ZNSt3__16vectorIP7tableroNS_9allocatorIS2_EEE21_ConstructTransactionD2B7v160006Ev, symObjAddr: 0x23B0, symBinAddr: 0x100006240, symSize: 0x20 }
  - { offsetInCU: 0xFF5A, offset: 0xFF5A, size: 0x8, addend: 0x0, symName: __ZNKSt3__16vectorIP7tableroNS_9allocatorIS2_EEE11__recommendB7v160006Em, symObjAddr: 0x23D0, symBinAddr: 0x100006260, symSize: 0xA0 }
  - { offsetInCU: 0xFFAE, offset: 0xFFAE, size: 0x8, addend: 0x0, symName: __ZNKSt3__16vectorIP7tableroNS_9allocatorIS2_EEE4sizeB7v160006Ev, symObjAddr: 0x2470, symBinAddr: 0x100006300, symSize: 0x20 }
  - { offsetInCU: 0xFFD4, offset: 0xFFD4, size: 0x8, addend: 0x0, symName: __ZNSt3__114__split_bufferIP7tableroRNS_9allocatorIS2_EEEC1EmmS5_, symObjAddr: 0x2490, symBinAddr: 0x100006320, symSize: 0x40 }
  - { offsetInCU: 0x1002A, offset: 0x1002A, size: 0x8, addend: 0x0, symName: __ZNSt3__114__split_bufferIP7tableroRNS_9allocatorIS2_EEED1Ev, symObjAddr: 0x2600, symBinAddr: 0x100006490, symSize: 0x20 }
  - { offsetInCU: 0x10056, offset: 0x10056, size: 0x8, addend: 0x0, symName: __ZNKSt3__16vectorIP7tableroNS_9allocatorIS2_EEE8max_sizeEv, symObjAddr: 0x2620, symBinAddr: 0x1000064B0, symSize: 0x60 }
  - { offsetInCU: 0x1007D, offset: 0x1007D, size: 0x8, addend: 0x0, symName: __ZNKSt3__16vectorIP7tableroNS_9allocatorIS2_EEE20__throw_length_errorB7v160006Ev, symObjAddr: 0x2680, symBinAddr: 0x100006510, symSize: 0x20 }
  - { offsetInCU: 0x100A3, offset: 0x100A3, size: 0x8, addend: 0x0, symName: __ZNKSt3__16vectorIP7tableroNS_9allocatorIS2_EEE8capacityB7v160006Ev, symObjAddr: 0x26A0, symBinAddr: 0x100006530, symSize: 0x30 }
  - { offsetInCU: 0x100D3, offset: 0x100D3, size: 0x8, addend: 0x0, symName: __ZNSt3__116allocator_traitsINS_9allocatorIP7tableroEEE8max_sizeB7v160006IS4_vEEmRKS4_, symObjAddr: 0x2730, symBinAddr: 0x1000065C0, symSize: 0x20 }
  - { offsetInCU: 0x10101, offset: 0x10101, size: 0x8, addend: 0x0, symName: __ZNKSt3__16vectorIP7tableroNS_9allocatorIS2_EEE7__allocB7v160006Ev, symObjAddr: 0x2750, symBinAddr: 0x1000065E0, symSize: 0x20 }
  - { offsetInCU: 0x10127, offset: 0x10127, size: 0x8, addend: 0x0, symName: __ZNSt3__114numeric_limitsIlE3maxB7v160006Ev, symObjAddr: 0x2770, symBinAddr: 0x100006600, symSize: 0x10 }
  - { offsetInCU: 0x1014F, offset: 0x1014F, size: 0x8, addend: 0x0, symName: __ZNKSt3__16__lessImmEclB7v160006ERKmS3_, symObjAddr: 0x27D0, symBinAddr: 0x100006660, symSize: 0x30 }
  - { offsetInCU: 0x10191, offset: 0x10191, size: 0x8, addend: 0x0, symName: __ZNKSt3__19allocatorIP7tableroE8max_sizeB7v160006Ev, symObjAddr: 0x2800, symBinAddr: 0x100006690, symSize: 0x20 }
  - { offsetInCU: 0x101B7, offset: 0x101B7, size: 0x8, addend: 0x0, symName: __ZNKSt3__117__compressed_pairIPP7tableroNS_9allocatorIS2_EEE6secondB7v160006Ev, symObjAddr: 0x2820, symBinAddr: 0x1000066B0, symSize: 0x20 }
  - { offsetInCU: 0x101DD, offset: 0x101DD, size: 0x8, addend: 0x0, symName: __ZNKSt3__122__compressed_pair_elemINS_9allocatorIP7tableroEELi1ELb1EE5__getB7v160006Ev, symObjAddr: 0x2840, symBinAddr: 0x1000066D0, symSize: 0x10 }
  - { offsetInCU: 0x10203, offset: 0x10203, size: 0x8, addend: 0x0, symName: __ZNSt3__123__libcpp_numeric_limitsIlLb1EE3maxB7v160006Ev, symObjAddr: 0x2850, symBinAddr: 0x1000066E0, symSize: 0x10 }
  - { offsetInCU: 0x10217, offset: 0x10217, size: 0x8, addend: 0x0, symName: __ZNSt12length_errorC1B7v160006EPKc, symObjAddr: 0x28D0, symBinAddr: 0x100006760, symSize: 0x30 }
  - { offsetInCU: 0x1024F, offset: 0x1024F, size: 0x8, addend: 0x0, symName: __ZNSt12length_errorC2B7v160006EPKc, symObjAddr: 0x2900, symBinAddr: 0x100006790, symSize: 0x40 }
  - { offsetInCU: 0x10287, offset: 0x10287, size: 0x8, addend: 0x0, symName: __ZNKSt3__16vectorIP7tableroNS_9allocatorIS2_EEE9__end_capB7v160006Ev, symObjAddr: 0x2940, symBinAddr: 0x1000067D0, symSize: 0x20 }
  - { offsetInCU: 0x102AD, offset: 0x102AD, size: 0x8, addend: 0x0, symName: __ZNKSt3__117__compressed_pairIPP7tableroNS_9allocatorIS2_EEE5firstB7v160006Ev, symObjAddr: 0x2960, symBinAddr: 0x1000067F0, symSize: 0x20 }
  - { offsetInCU: 0x102D3, offset: 0x102D3, size: 0x8, addend: 0x0, symName: __ZNKSt3__122__compressed_pair_elemIPP7tableroLi0ELb0EE5__getB7v160006Ev, symObjAddr: 0x2980, symBinAddr: 0x100006810, symSize: 0x10 }
  - { offsetInCU: 0x102F9, offset: 0x102F9, size: 0x8, addend: 0x0, symName: __ZNSt3__114__split_bufferIP7tableroRNS_9allocatorIS2_EEEC2EmmS5_, symObjAddr: 0x29E0, symBinAddr: 0x100006870, symSize: 0xD0 }
  - { offsetInCU: 0x1036D, offset: 0x1036D, size: 0x8, addend: 0x0, symName: __ZNSt3__117__compressed_pairIPP7tableroRNS_9allocatorIS2_EEEC1B7v160006IDnS6_EEOT_OT0_, symObjAddr: 0x2AB0, symBinAddr: 0x100006940, symSize: 0x30 }
  - { offsetInCU: 0x103C5, offset: 0x103C5, size: 0x8, addend: 0x0, symName: __ZNSt3__114__split_bufferIP7tableroRNS_9allocatorIS2_EEE7__allocB7v160006Ev, symObjAddr: 0x2B20, symBinAddr: 0x1000069B0, symSize: 0x20 }
  - { offsetInCU: 0x103EB, offset: 0x103EB, size: 0x8, addend: 0x0, symName: __ZNSt3__114__split_bufferIP7tableroRNS_9allocatorIS2_EEE9__end_capB7v160006Ev, symObjAddr: 0x2B40, symBinAddr: 0x1000069D0, symSize: 0x20 }
  - { offsetInCU: 0x10411, offset: 0x10411, size: 0x8, addend: 0x0, symName: __ZNSt3__117__compressed_pairIPP7tableroRNS_9allocatorIS2_EEEC2B7v160006IDnS6_EEOT_OT0_, symObjAddr: 0x2B60, symBinAddr: 0x1000069F0, symSize: 0x40 }
  - { offsetInCU: 0x10469, offset: 0x10469, size: 0x8, addend: 0x0, symName: __ZNSt3__122__compressed_pair_elemIRNS_9allocatorIP7tableroEELi1ELb0EEC2B7v160006IS5_vEEOT_, symObjAddr: 0x2BA0, symBinAddr: 0x100006A30, symSize: 0x20 }
  - { offsetInCU: 0x104AB, offset: 0x104AB, size: 0x8, addend: 0x0, symName: __ZNSt3__19allocatorIP7tableroE8allocateB7v160006Em, symObjAddr: 0x2BC0, symBinAddr: 0x100006A50, symSize: 0x50 }
  - { offsetInCU: 0x104DF, offset: 0x104DF, size: 0x8, addend: 0x0, symName: __ZNSt3__117__compressed_pairIPP7tableroRNS_9allocatorIS2_EEE6secondB7v160006Ev, symObjAddr: 0x2C90, symBinAddr: 0x100006B20, symSize: 0x20 }
  - { offsetInCU: 0x10505, offset: 0x10505, size: 0x8, addend: 0x0, symName: __ZNSt3__122__compressed_pair_elemIRNS_9allocatorIP7tableroEELi1ELb0EE5__getB7v160006Ev, symObjAddr: 0x2CB0, symBinAddr: 0x100006B40, symSize: 0x20 }
  - { offsetInCU: 0x1052B, offset: 0x1052B, size: 0x8, addend: 0x0, symName: __ZNSt3__117__compressed_pairIPP7tableroRNS_9allocatorIS2_EEE5firstB7v160006Ev, symObjAddr: 0x2CD0, symBinAddr: 0x100006B60, symSize: 0x20 }
  - { offsetInCU: 0x10551, offset: 0x10551, size: 0x8, addend: 0x0, symName: __ZNKSt3__16vectorIP7tableroNS_9allocatorIS2_EEE17__annotate_deleteB7v160006Ev, symObjAddr: 0x2CF0, symBinAddr: 0x100006B80, symSize: 0xB0 }
  - { offsetInCU: 0x10577, offset: 0x10577, size: 0x8, addend: 0x0, symName: __ZNSt3__116reverse_iteratorIPP7tableroEC1B7v160006ES3_, symObjAddr: 0x2E10, symBinAddr: 0x100006CA0, symSize: 0x30 }
  - { offsetInCU: 0x105AF, offset: 0x105AF, size: 0x8, addend: 0x0, symName: __ZNKSt3__116reverse_iteratorIPP7tableroE4baseB7v160006Ev, symObjAddr: 0x2E40, symBinAddr: 0x100006CD0, symSize: 0x20 }
  - { offsetInCU: 0x105D5, offset: 0x105D5, size: 0x8, addend: 0x0, symName: __ZNKSt3__16vectorIP7tableroNS_9allocatorIS2_EEE14__annotate_newB7v160006Em, symObjAddr: 0x2EA0, symBinAddr: 0x100006D30, symSize: 0xB0 }
  - { offsetInCU: 0x1060A, offset: 0x1060A, size: 0x8, addend: 0x0, symName: __ZNKSt3__16vectorIP7tableroNS_9allocatorIS2_EEE31__annotate_contiguous_containerB7v160006EPKvS7_S7_S7_, symObjAddr: 0x2F60, symBinAddr: 0x100006DF0, symSize: 0x20 }
  - { offsetInCU: 0x1065C, offset: 0x1065C, size: 0x8, addend: 0x0, symName: __ZNKSt3__16vectorIP7tableroNS_9allocatorIS2_EEE4dataB7v160006Ev, symObjAddr: 0x2F80, symBinAddr: 0x100006E10, symSize: 0x20 }
  - { offsetInCU: 0x106A5, offset: 0x106A5, size: 0x8, addend: 0x0, symName: __ZNKSt3__111__move_loopINS_17_ClassicAlgPolicyEEclB7v160006INS_16reverse_iteratorIPP7tableroEES8_S8_EENS_4pairIT_T1_EESA_T0_SB_, symObjAddr: 0x33E0, symBinAddr: 0x100007270, symSize: 0xA0 }
  - { offsetInCU: 0x10710, offset: 0x10710, size: 0x8, addend: 0x0, symName: __ZNSt3__18_IterOpsINS_17_ClassicAlgPolicyEE11__iter_moveB7v160006IRNS_16reverse_iteratorIPP7tableroEEEENS_9enable_ifIXsr12is_referenceIDTdeclsr3stdE7declvalIRT_EEEEE5valueEDTclsr3stdE4movedeclsr3stdE7declvalISC_EEEEE4typeEOSB_, symObjAddr: 0x3600, symBinAddr: 0x100007490, symSize: 0x20 }
  - { offsetInCU: 0x1073C, offset: 0x1073C, size: 0x8, addend: 0x0, symName: __ZNKSt3__116reverse_iteratorIPP7tableroEdeB7v160006Ev, symObjAddr: 0x3620, symBinAddr: 0x1000074B0, symSize: 0x30 }
  - { offsetInCU: 0x10770, offset: 0x10770, size: 0x8, addend: 0x0, symName: __ZNSt3__116reverse_iteratorIPP7tableroEppB7v160006Ev, symObjAddr: 0x3650, symBinAddr: 0x1000074E0, symSize: 0x20 }
  - { offsetInCU: 0x10796, offset: 0x10796, size: 0x8, addend: 0x0, symName: __ZNSt3__18_IterOpsINS_17_ClassicAlgPolicyEE25__validate_iter_referenceB7v160006IRNS_16reverse_iteratorIPP7tableroEEEEvv, symObjAddr: 0x3670, symBinAddr: 0x100007500, symSize: 0x10 }
  - { offsetInCU: 0x107B4, offset: 0x107B4, size: 0x8, addend: 0x0, symName: __ZNSt3__118__unwrap_iter_implINS_16reverse_iteratorIPP7tableroEELb0EE8__unwrapB7v160006ES5_, symObjAddr: 0x3680, symBinAddr: 0x100007510, symSize: 0x20 }
  - { offsetInCU: 0x107DC, offset: 0x107DC, size: 0x8, addend: 0x0, symName: __ZNSt3__14pairINS_16reverse_iteratorIPP7tableroEES5_EC1B7v160006IS5_S5_LPv0EEEOT_OT0_, symObjAddr: 0x36A0, symBinAddr: 0x100007530, symSize: 0x30 }
  - { offsetInCU: 0x1083A, offset: 0x1083A, size: 0x8, addend: 0x0, symName: __ZNSt3__14pairINS_16reverse_iteratorIPP7tableroEES5_EC2B7v160006IS5_S5_LPv0EEEOT_OT0_, symObjAddr: 0x36D0, symBinAddr: 0x100007560, symSize: 0x40 }
  - { offsetInCU: 0x10898, offset: 0x10898, size: 0x8, addend: 0x0, symName: __ZNSt3__118__unwrap_iter_implINS_16reverse_iteratorIPP7tableroEELb0EE8__rewrapB7v160006ES5_S5_, symObjAddr: 0x3710, symBinAddr: 0x1000075A0, symSize: 0x30 }
  - { offsetInCU: 0x108C6, offset: 0x108C6, size: 0x8, addend: 0x0, symName: __ZNSt3__116reverse_iteratorIPP7tableroEC2B7v160006ES3_, symObjAddr: 0x3740, symBinAddr: 0x1000075D0, symSize: 0x30 }
  - { offsetInCU: 0x108FE, offset: 0x108FE, size: 0x8, addend: 0x0, symName: __ZNSt3__114__split_bufferIP7tableroRNS_9allocatorIS2_EEED2Ev, symObjAddr: 0x3770, symBinAddr: 0x100007600, symSize: 0x70 }
  - { offsetInCU: 0x1092A, offset: 0x1092A, size: 0x8, addend: 0x0, symName: __ZNSt3__114__split_bufferIP7tableroRNS_9allocatorIS2_EEE5clearB7v160006Ev, symObjAddr: 0x37E0, symBinAddr: 0x100007670, symSize: 0x20 }
  - { offsetInCU: 0x10950, offset: 0x10950, size: 0x8, addend: 0x0, symName: __ZNSt3__116allocator_traitsINS_9allocatorIP7tableroEEE10deallocateB7v160006ERS4_PS3_m, symObjAddr: 0x3800, symBinAddr: 0x100007690, symSize: 0x30 }
  - { offsetInCU: 0x10992, offset: 0x10992, size: 0x8, addend: 0x0, symName: __ZNKSt3__114__split_bufferIP7tableroRNS_9allocatorIS2_EEE8capacityB7v160006Ev, symObjAddr: 0x3830, symBinAddr: 0x1000076C0, symSize: 0x30 }
  - { offsetInCU: 0x109B8, offset: 0x109B8, size: 0x8, addend: 0x0, symName: __ZNSt3__114__split_bufferIP7tableroRNS_9allocatorIS2_EEE17__destruct_at_endB7v160006EPS2_, symObjAddr: 0x3860, symBinAddr: 0x1000076F0, symSize: 0x30 }
  - { offsetInCU: 0x109EC, offset: 0x109EC, size: 0x8, addend: 0x0, symName: __ZNSt3__114__split_bufferIP7tableroRNS_9allocatorIS2_EEE17__destruct_at_endB7v160006EPS2_NS_17integral_constantIbLb0EEE, symObjAddr: 0x3890, symBinAddr: 0x100007720, symSize: 0x80 }
  - { offsetInCU: 0x10A2C, offset: 0x10A2C, size: 0x8, addend: 0x0, symName: __ZNSt3__116allocator_traitsINS_9allocatorIP7tableroEEE7destroyB7v160006IS3_vEEvRS4_PT_, symObjAddr: 0x3910, symBinAddr: 0x1000077A0, symSize: 0x30 }
  - { offsetInCU: 0x10A69, offset: 0x10A69, size: 0x8, addend: 0x0, symName: __ZNSt3__19allocatorIP7tableroE7destroyB7v160006EPS2_, symObjAddr: 0x3940, symBinAddr: 0x1000077D0, symSize: 0x10 }
  - { offsetInCU: 0x10A9D, offset: 0x10A9D, size: 0x8, addend: 0x0, symName: __ZNSt3__19allocatorIP7tableroE10deallocateB7v160006EPS2_m, symObjAddr: 0x3950, symBinAddr: 0x1000077E0, symSize: 0x40 }
  - { offsetInCU: 0x10ADF, offset: 0x10ADF, size: 0x8, addend: 0x0, symName: __ZNKSt3__114__split_bufferIP7tableroRNS_9allocatorIS2_EEE9__end_capB7v160006Ev, symObjAddr: 0x3A00, symBinAddr: 0x100007890, symSize: 0x20 }
  - { offsetInCU: 0x10B05, offset: 0x10B05, size: 0x8, addend: 0x0, symName: __ZNKSt3__117__compressed_pairIPP7tableroRNS_9allocatorIS2_EEE5firstB7v160006Ev, symObjAddr: 0x3A20, symBinAddr: 0x1000078B0, symSize: 0x20 }
  - { offsetInCU: 0x10B2B, offset: 0x10B2B, size: 0x8, addend: 0x0, symName: __ZNSt3__16vectorINS0_IP7tableroNS_9allocatorIS2_EEEENS3_IS5_EEE9__end_capB7v160006Ev, symObjAddr: 0x3A40, symBinAddr: 0x1000078D0, symSize: 0x20 }
  - { offsetInCU: 0x10B51, offset: 0x10B51, size: 0x8, addend: 0x0, symName: __ZNSt3__16vectorINS0_IP7tableroNS_9allocatorIS2_EEEENS3_IS5_EEE22__construct_one_at_endB7v160006IJRKS5_EEEvDpOT_, symObjAddr: 0x3A60, symBinAddr: 0x1000078F0, symSize: 0x90 }
  - { offsetInCU: 0x10BA0, offset: 0x10BA0, size: 0x8, addend: 0x0, symName: __ZNSt3__16vectorINS0_IP7tableroNS_9allocatorIS2_EEEENS3_IS5_EEE21__push_back_slow_pathIRKS5_EEvOT_, symObjAddr: 0x3AF0, symBinAddr: 0x100007980, symSize: 0xD0 }
  - { offsetInCU: 0x10BFD, offset: 0x10BFD, size: 0x8, addend: 0x0, symName: __ZNSt3__117__compressed_pairIPNS_6vectorIP7tableroNS_9allocatorIS3_EEEENS4_IS6_EEE5firstB7v160006Ev, symObjAddr: 0x3BC0, symBinAddr: 0x100007A50, symSize: 0x20 }
  - { offsetInCU: 0x10C23, offset: 0x10C23, size: 0x8, addend: 0x0, symName: __ZNSt3__122__compressed_pair_elemIPNS_6vectorIP7tableroNS_9allocatorIS3_EEEELi0ELb0EE5__getB7v160006Ev, symObjAddr: 0x3BE0, symBinAddr: 0x100007A70, symSize: 0x10 }
  - { offsetInCU: 0x10C62, offset: 0x10C62, size: 0x8, addend: 0x0, symName: __ZNSt3__16vectorINS0_IP7tableroNS_9allocatorIS2_EEEENS3_IS5_EEE21_ConstructTransactionC1B7v160006ERS7_m, symObjAddr: 0x3BF0, symBinAddr: 0x100007A80, symSize: 0x30 }
  - { offsetInCU: 0x10CAA, offset: 0x10CAA, size: 0x8, addend: 0x0, symName: __ZNSt3__116allocator_traitsINS_9allocatorINS_6vectorIP7tableroNS1_IS4_EEEEEEE9constructB7v160006IS6_JRKS6_EvEEvRS7_PT_DpOT0_, symObjAddr: 0x3C20, symBinAddr: 0x100007AB0, symSize: 0x30 }
  - { offsetInCU: 0x10D01, offset: 0x10D01, size: 0x8, addend: 0x0, symName: __ZNSt3__16vectorINS0_IP7tableroNS_9allocatorIS2_EEEENS3_IS5_EEE7__allocB7v160006Ev, symObjAddr: 0x3C50, symBinAddr: 0x100007AE0, symSize: 0x20 }
  - { offsetInCU: 0x10D27, offset: 0x10D27, size: 0x8, addend: 0x0, symName: __ZNSt3__16vectorINS0_IP7tableroNS_9allocatorIS2_EEEENS3_IS5_EEE21_ConstructTransactionD1B7v160006Ev, symObjAddr: 0x3C80, symBinAddr: 0x100007B10, symSize: 0x20 }
  - { offsetInCU: 0x10D51, offset: 0x10D51, size: 0x8, addend: 0x0, symName: __ZNSt3__16vectorINS0_IP7tableroNS_9allocatorIS2_EEEENS3_IS5_EEE21_ConstructTransactionC2B7v160006ERS7_m, symObjAddr: 0x3CA0, symBinAddr: 0x100007B30, symSize: 0x40 }
  - { offsetInCU: 0x10D99, offset: 0x10D99, size: 0x8, addend: 0x0, symName: __ZNSt3__19allocatorINS_6vectorIP7tableroNS0_IS3_EEEEE9constructB7v160006IS5_JRKS5_EEEvPT_DpOT0_, symObjAddr: 0x3CE0, symBinAddr: 0x100007B70, symSize: 0x30 }
  - { offsetInCU: 0x10DEF, offset: 0x10DEF, size: 0x8, addend: 0x0, symName: __ZNSt3__16vectorIP7tableroNS_9allocatorIS2_EEEC1ERKS5_, symObjAddr: 0x3D10, symBinAddr: 0x100007BA0, symSize: 0x30 }
  - { offsetInCU: 0x10E2A, offset: 0x10E2A, size: 0x8, addend: 0x0, symName: __ZNSt3__16vectorIP7tableroNS_9allocatorIS2_EEEC2ERKS5_, symObjAddr: 0x3D40, symBinAddr: 0x100007BD0, symSize: 0x110 }
  - { offsetInCU: 0x10E8A, offset: 0x10E8A, size: 0x8, addend: 0x0, symName: __ZNSt3__116allocator_traitsINS_9allocatorIP7tableroEEE37select_on_container_copy_constructionB7v160006IS4_vvEES4_RKS4_, symObjAddr: 0x3E50, symBinAddr: 0x100007CE0, symSize: 0x10 }
  - { offsetInCU: 0x10EBE, offset: 0x10EBE, size: 0x8, addend: 0x0, symName: __ZNSt3__117__compressed_pairIPP7tableroNS_9allocatorIS2_EEEC1B7v160006IDnS5_EEOT_OT0_, symObjAddr: 0x3E60, symBinAddr: 0x100007CF0, symSize: 0x30 }
  - { offsetInCU: 0x10F16, offset: 0x10F16, size: 0x8, addend: 0x0, symName: __ZNSt3__16vectorIP7tableroNS_9allocatorIS2_EEE16__destroy_vectorC1ERS5_, symObjAddr: 0x3ED0, symBinAddr: 0x100007D60, symSize: 0x30 }
  - { offsetInCU: 0x10F4F, offset: 0x10F4F, size: 0x8, addend: 0x0, symName: __ZNSt3__16vectorIP7tableroNS_9allocatorIS2_EEE11__vallocateB7v160006Em, symObjAddr: 0x3F00, symBinAddr: 0x100007D90, symSize: 0xA0 }
  - { offsetInCU: 0x10F93, offset: 0x10F93, size: 0x8, addend: 0x0, symName: __ZNSt3__16vectorIP7tableroNS_9allocatorIS2_EEE18__construct_at_endIPS2_Li0EEEvT_S8_m, symObjAddr: 0x3FA0, symBinAddr: 0x100007E30, symSize: 0x90 }
  - { offsetInCU: 0x11005, offset: 0x11005, size: 0x8, addend: 0x0, symName: __ZNSt3__128__exception_guard_exceptionsINS_6vectorIP7tableroNS_9allocatorIS3_EEE16__destroy_vectorEE10__completeB7v160006Ev, symObjAddr: 0x4030, symBinAddr: 0x100007EC0, symSize: 0x20 }
  - { offsetInCU: 0x1102B, offset: 0x1102B, size: 0x8, addend: 0x0, symName: __ZNSt3__128__exception_guard_exceptionsINS_6vectorIP7tableroNS_9allocatorIS3_EEE16__destroy_vectorEED1B7v160006Ev, symObjAddr: 0x4050, symBinAddr: 0x100007EE0, symSize: 0x20 }
  - { offsetInCU: 0x11055, offset: 0x11055, size: 0x8, addend: 0x0, symName: __ZNSt3__117__compressed_pairIPP7tableroNS_9allocatorIS2_EEEC2B7v160006IDnS5_EEOT_OT0_, symObjAddr: 0x4070, symBinAddr: 0x100007F00, symSize: 0x40 }
  - { offsetInCU: 0x110AD, offset: 0x110AD, size: 0x8, addend: 0x0, symName: __ZNSt3__122__compressed_pair_elemINS_9allocatorIP7tableroEELi1ELb1EEC2B7v160006IS4_vEEOT_, symObjAddr: 0x40B0, symBinAddr: 0x100007F40, symSize: 0x10 }
  - { offsetInCU: 0x110EF, offset: 0x110EF, size: 0x8, addend: 0x0, symName: __ZNSt3__128__exception_guard_exceptionsINS_6vectorIP7tableroNS_9allocatorIS3_EEE16__destroy_vectorEEC1B7v160006ES7_, symObjAddr: 0x40C0, symBinAddr: 0x100007F50, symSize: 0x30 }
  - { offsetInCU: 0x11127, offset: 0x11127, size: 0x8, addend: 0x0, symName: __ZNSt3__128__exception_guard_exceptionsINS_6vectorIP7tableroNS_9allocatorIS3_EEE16__destroy_vectorEEC2B7v160006ES7_, symObjAddr: 0x40F0, symBinAddr: 0x100007F80, symSize: 0x20 }
  - { offsetInCU: 0x1115F, offset: 0x1115F, size: 0x8, addend: 0x0, symName: __ZNSt3__16vectorIP7tableroNS_9allocatorIS2_EEE16__destroy_vectorC2ERS5_, symObjAddr: 0x4110, symBinAddr: 0x100007FA0, symSize: 0x20 }
  - { offsetInCU: 0x11198, offset: 0x11198, size: 0x8, addend: 0x0, symName: __ZNSt3__129_AllocatorDestroyRangeReverseINS_9allocatorIP7tableroEEPS3_EC1B7v160006ERS4_RS5_S8_, symObjAddr: 0x4290, symBinAddr: 0x100008120, symSize: 0x40 }
  - { offsetInCU: 0x111EF, offset: 0x111EF, size: 0x8, addend: 0x0, symName: __ZNSt3__116allocator_traitsINS_9allocatorIP7tableroEEE9constructB7v160006IS3_JRS3_EvEEvRS4_PT_DpOT0_, symObjAddr: 0x42D0, symBinAddr: 0x100008160, symSize: 0x30 }
  - { offsetInCU: 0x11246, offset: 0x11246, size: 0x8, addend: 0x0, symName: __ZNSt3__128__exception_guard_exceptionsINS_29_AllocatorDestroyRangeReverseINS_9allocatorIP7tableroEEPS4_EEE10__completeB7v160006Ev, symObjAddr: 0x4300, symBinAddr: 0x100008190, symSize: 0x20 }
  - { offsetInCU: 0x1126C, offset: 0x1126C, size: 0x8, addend: 0x0, symName: __ZNSt3__128__exception_guard_exceptionsINS_29_AllocatorDestroyRangeReverseINS_9allocatorIP7tableroEEPS4_EEED1B7v160006Ev, symObjAddr: 0x4320, symBinAddr: 0x1000081B0, symSize: 0x20 }
  - { offsetInCU: 0x11296, offset: 0x11296, size: 0x8, addend: 0x0, symName: __ZNSt3__128__exception_guard_exceptionsINS_29_AllocatorDestroyRangeReverseINS_9allocatorIP7tableroEEPS4_EEEC1B7v160006ES7_, symObjAddr: 0x4340, symBinAddr: 0x1000081D0, symSize: 0x40 }
  - { offsetInCU: 0x112CE, offset: 0x112CE, size: 0x8, addend: 0x0, symName: __ZNSt3__128__exception_guard_exceptionsINS_29_AllocatorDestroyRangeReverseINS_9allocatorIP7tableroEEPS4_EEEC2B7v160006ES7_, symObjAddr: 0x4380, symBinAddr: 0x100008210, symSize: 0x30 }
  - { offsetInCU: 0x11306, offset: 0x11306, size: 0x8, addend: 0x0, symName: __ZNSt3__129_AllocatorDestroyRangeReverseINS_9allocatorIP7tableroEEPS3_EC2B7v160006ERS4_RS5_S8_, symObjAddr: 0x43B0, symBinAddr: 0x100008240, symSize: 0x40 }
  - { offsetInCU: 0x1135D, offset: 0x1135D, size: 0x8, addend: 0x0, symName: __ZNSt3__19allocatorIP7tableroE9constructB7v160006IS2_JRS2_EEEvPT_DpOT0_, symObjAddr: 0x43F0, symBinAddr: 0x100008280, symSize: 0x20 }
  - { offsetInCU: 0x113B3, offset: 0x113B3, size: 0x8, addend: 0x0, symName: __ZNSt3__128__exception_guard_exceptionsINS_29_AllocatorDestroyRangeReverseINS_9allocatorIP7tableroEEPS4_EEED2B7v160006Ev, symObjAddr: 0x4410, symBinAddr: 0x1000082A0, symSize: 0x40 }
  - { offsetInCU: 0x113DD, offset: 0x113DD, size: 0x8, addend: 0x0, symName: __ZNKSt3__129_AllocatorDestroyRangeReverseINS_9allocatorIP7tableroEEPS3_EclB7v160006Ev, symObjAddr: 0x4450, symBinAddr: 0x1000082E0, symSize: 0x60 }
  - { offsetInCU: 0x11408, offset: 0x11408, size: 0x8, addend: 0x0, symName: __ZNSt3__119__to_address_helperINS_16reverse_iteratorIPP7tableroEEvE6__callB7v160006ERKS5_, symObjAddr: 0x4540, symBinAddr: 0x1000083D0, symSize: 0x40 }
  - { offsetInCU: 0x1142B, offset: 0x1142B, size: 0x8, addend: 0x0, symName: __ZNKSt3__116reverse_iteratorIPP7tableroEptB7v160006Ev, symObjAddr: 0x4580, symBinAddr: 0x100008410, symSize: 0x20 }
  - { offsetInCU: 0x11451, offset: 0x11451, size: 0x8, addend: 0x0, symName: __ZNSt3__128__exception_guard_exceptionsINS_6vectorIP7tableroNS_9allocatorIS3_EEE16__destroy_vectorEED2B7v160006Ev, symObjAddr: 0x45A0, symBinAddr: 0x100008430, symSize: 0x40 }
  - { offsetInCU: 0x1147B, offset: 0x1147B, size: 0x8, addend: 0x0, symName: __ZNSt3__16vectorIP7tableroNS_9allocatorIS2_EEE16__destroy_vectorclB7v160006Ev, symObjAddr: 0x45E0, symBinAddr: 0x100008470, symSize: 0x90 }
  - { offsetInCU: 0x114A1, offset: 0x114A1, size: 0x8, addend: 0x0, symName: __ZNSt3__16vectorIP7tableroNS_9allocatorIS2_EEE7__clearB7v160006Ev, symObjAddr: 0x4680, symBinAddr: 0x100008510, symSize: 0x20 }
  - { offsetInCU: 0x114C7, offset: 0x114C7, size: 0x8, addend: 0x0, symName: __ZNSt3__16vectorIP7tableroNS_9allocatorIS2_EEE22__base_destruct_at_endB7v160006EPS2_, symObjAddr: 0x46A0, symBinAddr: 0x100008530, symSize: 0x80 }
  - { offsetInCU: 0x1150B, offset: 0x1150B, size: 0x8, addend: 0x0, symName: __ZNSt3__117__compressed_pairIPNS_6vectorIP7tableroNS_9allocatorIS3_EEEENS4_IS6_EEE6secondB7v160006Ev, symObjAddr: 0x4720, symBinAddr: 0x1000085B0, symSize: 0x20 }
  - { offsetInCU: 0x11531, offset: 0x11531, size: 0x8, addend: 0x0, symName: __ZNSt3__122__compressed_pair_elemINS_9allocatorINS_6vectorIP7tableroNS1_IS4_EEEEEELi1ELb1EE5__getB7v160006Ev, symObjAddr: 0x4740, symBinAddr: 0x1000085D0, symSize: 0x10 }
  - { offsetInCU: 0x11557, offset: 0x11557, size: 0x8, addend: 0x0, symName: __ZNSt3__16vectorINS0_IP7tableroNS_9allocatorIS2_EEEENS3_IS5_EEE21_ConstructTransactionD2B7v160006Ev, symObjAddr: 0x4750, symBinAddr: 0x1000085E0, symSize: 0x20 }
  - { offsetInCU: 0x11581, offset: 0x11581, size: 0x8, addend: 0x0, symName: __ZNKSt3__16vectorINS0_IP7tableroNS_9allocatorIS2_EEEENS3_IS5_EEE11__recommendB7v160006Em, symObjAddr: 0x4770, symBinAddr: 0x100008600, symSize: 0xA0 }
  - { offsetInCU: 0x115D5, offset: 0x115D5, size: 0x8, addend: 0x0, symName: __ZNKSt3__16vectorINS0_IP7tableroNS_9allocatorIS2_EEEENS3_IS5_EEE4sizeB7v160006Ev, symObjAddr: 0x4810, symBinAddr: 0x1000086A0, symSize: 0x30 }
  - { offsetInCU: 0x115FB, offset: 0x115FB, size: 0x8, addend: 0x0, symName: __ZNSt3__114__split_bufferINS_6vectorIP7tableroNS_9allocatorIS3_EEEERNS4_IS6_EEEC1EmmS8_, symObjAddr: 0x4840, symBinAddr: 0x1000086D0, symSize: 0x40 }
  - { offsetInCU: 0x11651, offset: 0x11651, size: 0x8, addend: 0x0, symName: __ZNSt3__114__split_bufferINS_6vectorIP7tableroNS_9allocatorIS3_EEEERNS4_IS6_EEED1Ev, symObjAddr: 0x49B0, symBinAddr: 0x100008840, symSize: 0x20 }
  - { offsetInCU: 0x1167D, offset: 0x1167D, size: 0x8, addend: 0x0, symName: __ZNKSt3__16vectorINS0_IP7tableroNS_9allocatorIS2_EEEENS3_IS5_EEE8max_sizeEv, symObjAddr: 0x49D0, symBinAddr: 0x100008860, symSize: 0x60 }
  - { offsetInCU: 0x116A4, offset: 0x116A4, size: 0x8, addend: 0x0, symName: __ZNKSt3__16vectorINS0_IP7tableroNS_9allocatorIS2_EEEENS3_IS5_EEE20__throw_length_errorB7v160006Ev, symObjAddr: 0x4A30, symBinAddr: 0x1000088C0, symSize: 0x20 }
  - { offsetInCU: 0x116CA, offset: 0x116CA, size: 0x8, addend: 0x0, symName: __ZNKSt3__16vectorINS0_IP7tableroNS_9allocatorIS2_EEEENS3_IS5_EEE8capacityB7v160006Ev, symObjAddr: 0x4A50, symBinAddr: 0x1000088E0, symSize: 0x40 }
  - { offsetInCU: 0x116FA, offset: 0x116FA, size: 0x8, addend: 0x0, symName: __ZNSt3__116allocator_traitsINS_9allocatorINS_6vectorIP7tableroNS1_IS4_EEEEEEE8max_sizeB7v160006IS7_vEEmRKS7_, symObjAddr: 0x4A90, symBinAddr: 0x100008920, symSize: 0x20 }
  - { offsetInCU: 0x11728, offset: 0x11728, size: 0x8, addend: 0x0, symName: __ZNKSt3__16vectorINS0_IP7tableroNS_9allocatorIS2_EEEENS3_IS5_EEE7__allocB7v160006Ev, symObjAddr: 0x4AB0, symBinAddr: 0x100008940, symSize: 0x20 }
  - { offsetInCU: 0x1174E, offset: 0x1174E, size: 0x8, addend: 0x0, symName: __ZNKSt3__19allocatorINS_6vectorIP7tableroNS0_IS3_EEEEE8max_sizeB7v160006Ev, symObjAddr: 0x4AD0, symBinAddr: 0x100008960, symSize: 0x20 }
  - { offsetInCU: 0x11774, offset: 0x11774, size: 0x8, addend: 0x0, symName: __ZNKSt3__117__compressed_pairIPNS_6vectorIP7tableroNS_9allocatorIS3_EEEENS4_IS6_EEE6secondB7v160006Ev, symObjAddr: 0x4AF0, symBinAddr: 0x100008980, symSize: 0x20 }
  - { offsetInCU: 0x1179A, offset: 0x1179A, size: 0x8, addend: 0x0, symName: __ZNKSt3__122__compressed_pair_elemINS_9allocatorINS_6vectorIP7tableroNS1_IS4_EEEEEELi1ELb1EE5__getB7v160006Ev, symObjAddr: 0x4B10, symBinAddr: 0x1000089A0, symSize: 0x10 }
  - { offsetInCU: 0x117C0, offset: 0x117C0, size: 0x8, addend: 0x0, symName: __ZNKSt3__16vectorINS0_IP7tableroNS_9allocatorIS2_EEEENS3_IS5_EEE9__end_capB7v160006Ev, symObjAddr: 0x4B20, symBinAddr: 0x1000089B0, symSize: 0x20 }
  - { offsetInCU: 0x117E6, offset: 0x117E6, size: 0x8, addend: 0x0, symName: __ZNKSt3__117__compressed_pairIPNS_6vectorIP7tableroNS_9allocatorIS3_EEEENS4_IS6_EEE5firstB7v160006Ev, symObjAddr: 0x4B40, symBinAddr: 0x1000089D0, symSize: 0x20 }
  - { offsetInCU: 0x1180C, offset: 0x1180C, size: 0x8, addend: 0x0, symName: __ZNKSt3__122__compressed_pair_elemIPNS_6vectorIP7tableroNS_9allocatorIS3_EEEELi0ELb0EE5__getB7v160006Ev, symObjAddr: 0x4B60, symBinAddr: 0x1000089F0, symSize: 0x10 }
  - { offsetInCU: 0x11832, offset: 0x11832, size: 0x8, addend: 0x0, symName: __ZNSt3__114__split_bufferINS_6vectorIP7tableroNS_9allocatorIS3_EEEERNS4_IS6_EEEC2EmmS8_, symObjAddr: 0x4B70, symBinAddr: 0x100008A00, symSize: 0xC0 }
  - { offsetInCU: 0x118A6, offset: 0x118A6, size: 0x8, addend: 0x0, symName: __ZNSt3__117__compressed_pairIPNS_6vectorIP7tableroNS_9allocatorIS3_EEEERNS4_IS6_EEEC1B7v160006IDnS9_EEOT_OT0_, symObjAddr: 0x4C30, symBinAddr: 0x100008AC0, symSize: 0x30 }
  - { offsetInCU: 0x118FE, offset: 0x118FE, size: 0x8, addend: 0x0, symName: __ZNSt3__114__split_bufferINS_6vectorIP7tableroNS_9allocatorIS3_EEEERNS4_IS6_EEE7__allocB7v160006Ev, symObjAddr: 0x4CA0, symBinAddr: 0x100008B30, symSize: 0x20 }
  - { offsetInCU: 0x11924, offset: 0x11924, size: 0x8, addend: 0x0, symName: __ZNSt3__114__split_bufferINS_6vectorIP7tableroNS_9allocatorIS3_EEEERNS4_IS6_EEE9__end_capB7v160006Ev, symObjAddr: 0x4CC0, symBinAddr: 0x100008B50, symSize: 0x20 }
  - { offsetInCU: 0x1194A, offset: 0x1194A, size: 0x8, addend: 0x0, symName: __ZNSt3__117__compressed_pairIPNS_6vectorIP7tableroNS_9allocatorIS3_EEEERNS4_IS6_EEEC2B7v160006IDnS9_EEOT_OT0_, symObjAddr: 0x4CE0, symBinAddr: 0x100008B70, symSize: 0x40 }
  - { offsetInCU: 0x119A2, offset: 0x119A2, size: 0x8, addend: 0x0, symName: __ZNSt3__122__compressed_pair_elemIRNS_9allocatorINS_6vectorIP7tableroNS1_IS4_EEEEEELi1ELb0EEC2B7v160006IS8_vEEOT_, symObjAddr: 0x4D20, symBinAddr: 0x100008BB0, symSize: 0x20 }
  - { offsetInCU: 0x119E4, offset: 0x119E4, size: 0x8, addend: 0x0, symName: __ZNSt3__19allocatorINS_6vectorIP7tableroNS0_IS3_EEEEE8allocateB7v160006Em, symObjAddr: 0x4D40, symBinAddr: 0x100008BD0, symSize: 0x50 }
  - { offsetInCU: 0x11A18, offset: 0x11A18, size: 0x8, addend: 0x0, symName: __ZNSt3__117__compressed_pairIPNS_6vectorIP7tableroNS_9allocatorIS3_EEEERNS4_IS6_EEE6secondB7v160006Ev, symObjAddr: 0x4D90, symBinAddr: 0x100008C20, symSize: 0x20 }
  - { offsetInCU: 0x11A3E, offset: 0x11A3E, size: 0x8, addend: 0x0, symName: __ZNSt3__122__compressed_pair_elemIRNS_9allocatorINS_6vectorIP7tableroNS1_IS4_EEEEEELi1ELb0EE5__getB7v160006Ev, symObjAddr: 0x4DB0, symBinAddr: 0x100008C40, symSize: 0x20 }
  - { offsetInCU: 0x11A64, offset: 0x11A64, size: 0x8, addend: 0x0, symName: __ZNSt3__117__compressed_pairIPNS_6vectorIP7tableroNS_9allocatorIS3_EEEERNS4_IS6_EEE5firstB7v160006Ev, symObjAddr: 0x4DD0, symBinAddr: 0x100008C60, symSize: 0x20 }
  - { offsetInCU: 0x11A8A, offset: 0x11A8A, size: 0x8, addend: 0x0, symName: __ZNKSt3__16vectorINS0_IP7tableroNS_9allocatorIS2_EEEENS3_IS5_EEE17__annotate_deleteB7v160006Ev, symObjAddr: 0x4DF0, symBinAddr: 0x100008C80, symSize: 0xB0 }
  - { offsetInCU: 0x11AB0, offset: 0x11AB0, size: 0x8, addend: 0x0, symName: __ZNSt3__116reverse_iteratorIPNS_6vectorIP7tableroNS_9allocatorIS3_EEEEEC1B7v160006ES7_, symObjAddr: 0x5020, symBinAddr: 0x100008EB0, symSize: 0x30 }
  - { offsetInCU: 0x11AE8, offset: 0x11AE8, size: 0x8, addend: 0x0, symName: __ZNKSt3__116reverse_iteratorIPNS_6vectorIP7tableroNS_9allocatorIS3_EEEEE4baseB7v160006Ev, symObjAddr: 0x5050, symBinAddr: 0x100008EE0, symSize: 0x20 }
  - { offsetInCU: 0x11B0E, offset: 0x11B0E, size: 0x8, addend: 0x0, symName: __ZNKSt3__16vectorINS0_IP7tableroNS_9allocatorIS2_EEEENS3_IS5_EEE14__annotate_newB7v160006Em, symObjAddr: 0x50B0, symBinAddr: 0x100008F40, symSize: 0xA0 }
  - { offsetInCU: 0x11B43, offset: 0x11B43, size: 0x8, addend: 0x0, symName: __ZNKSt3__16vectorINS0_IP7tableroNS_9allocatorIS2_EEEENS3_IS5_EEE31__annotate_contiguous_containerB7v160006EPKvS9_S9_S9_, symObjAddr: 0x5160, symBinAddr: 0x100008FF0, symSize: 0x20 }
  - { offsetInCU: 0x11B95, offset: 0x11B95, size: 0x8, addend: 0x0, symName: __ZNKSt3__16vectorINS0_IP7tableroNS_9allocatorIS2_EEEENS3_IS5_EEE4dataB7v160006Ev, symObjAddr: 0x5180, symBinAddr: 0x100009010, symSize: 0x20 }
  - { offsetInCU: 0x11BBB, offset: 0x11BBB, size: 0x8, addend: 0x0, symName: __ZNSt3__129_AllocatorDestroyRangeReverseINS_9allocatorINS_6vectorIP7tableroNS1_IS4_EEEEEENS_16reverse_iteratorIPS6_EEEC1B7v160006ERS7_RSA_SD_, symObjAddr: 0x5200, symBinAddr: 0x100009090, symSize: 0x40 }
  - { offsetInCU: 0x11C12, offset: 0x11C12, size: 0x8, addend: 0x0, symName: __ZNSt3__116allocator_traitsINS_9allocatorINS_6vectorIP7tableroNS1_IS4_EEEEEEE9constructB7v160006IS6_JS6_EvEEvRS7_PT_DpOT0_, symObjAddr: 0x5280, symBinAddr: 0x100009110, symSize: 0x30 }
  - { offsetInCU: 0x11C69, offset: 0x11C69, size: 0x8, addend: 0x0, symName: __ZNKSt3__116reverse_iteratorIPNS_6vectorIP7tableroNS_9allocatorIS3_EEEEEdeB7v160006Ev, symObjAddr: 0x52D0, symBinAddr: 0x100009160, symSize: 0x30 }
  - { offsetInCU: 0x11C9D, offset: 0x11C9D, size: 0x8, addend: 0x0, symName: __ZNSt3__116reverse_iteratorIPNS_6vectorIP7tableroNS_9allocatorIS3_EEEEEppB7v160006Ev, symObjAddr: 0x5300, symBinAddr: 0x100009190, symSize: 0x20 }
  - { offsetInCU: 0x11CC3, offset: 0x11CC3, size: 0x8, addend: 0x0, symName: __ZNSt3__128__exception_guard_exceptionsINS_29_AllocatorDestroyRangeReverseINS_9allocatorINS_6vectorIP7tableroNS2_IS5_EEEEEENS_16reverse_iteratorIPS7_EEEEE10__completeB7v160006Ev, symObjAddr: 0x5320, symBinAddr: 0x1000091B0, symSize: 0x20 }
  - { offsetInCU: 0x11CE9, offset: 0x11CE9, size: 0x8, addend: 0x0, symName: __ZNSt3__128__exception_guard_exceptionsINS_29_AllocatorDestroyRangeReverseINS_9allocatorINS_6vectorIP7tableroNS2_IS5_EEEEEENS_16reverse_iteratorIPS7_EEEEED1B7v160006Ev, symObjAddr: 0x5340, symBinAddr: 0x1000091D0, symSize: 0x20 }
  - { offsetInCU: 0x11D13, offset: 0x11D13, size: 0x8, addend: 0x0, symName: __ZNSt3__128__exception_guard_exceptionsINS_29_AllocatorDestroyRangeReverseINS_9allocatorINS_6vectorIP7tableroNS2_IS5_EEEEEENS_16reverse_iteratorIPS7_EEEEEC1B7v160006ESC_, symObjAddr: 0x5360, symBinAddr: 0x1000091F0, symSize: 0x40 }
  - { offsetInCU: 0x11D4B, offset: 0x11D4B, size: 0x8, addend: 0x0, symName: __ZNSt3__128__exception_guard_exceptionsINS_29_AllocatorDestroyRangeReverseINS_9allocatorINS_6vectorIP7tableroNS2_IS5_EEEEEENS_16reverse_iteratorIPS7_EEEEEC2B7v160006ESC_, symObjAddr: 0x53A0, symBinAddr: 0x100009230, symSize: 0x30 }
  - { offsetInCU: 0x11D83, offset: 0x11D83, size: 0x8, addend: 0x0, symName: __ZNSt3__129_AllocatorDestroyRangeReverseINS_9allocatorINS_6vectorIP7tableroNS1_IS4_EEEEEENS_16reverse_iteratorIPS6_EEEC2B7v160006ERS7_RSA_SD_, symObjAddr: 0x53D0, symBinAddr: 0x100009260, symSize: 0x40 }
  - { offsetInCU: 0x11DDA, offset: 0x11DDA, size: 0x8, addend: 0x0, symName: __ZNSt3__19allocatorINS_6vectorIP7tableroNS0_IS3_EEEEE9constructB7v160006IS5_JS5_EEEvPT_DpOT0_, symObjAddr: 0x5410, symBinAddr: 0x1000092A0, symSize: 0x30 }
  - { offsetInCU: 0x11E30, offset: 0x11E30, size: 0x8, addend: 0x0, symName: __ZNSt3__16vectorIP7tableroNS_9allocatorIS2_EEEC1B7v160006EOS5_, symObjAddr: 0x5440, symBinAddr: 0x1000092D0, symSize: 0x30 }
  - { offsetInCU: 0x11E6B, offset: 0x11E6B, size: 0x8, addend: 0x0, symName: __ZNSt3__16vectorIP7tableroNS_9allocatorIS2_EEEC2B7v160006EOS5_, symObjAddr: 0x5470, symBinAddr: 0x100009300, symSize: 0xE0 }
  - { offsetInCU: 0x11EAB, offset: 0x11EAB, size: 0x8, addend: 0x0, symName: __ZNSt3__119__to_address_helperINS_16reverse_iteratorIPNS_6vectorIP7tableroNS_9allocatorIS4_EEEEEEvE6__callB7v160006ERKS9_, symObjAddr: 0x5560, symBinAddr: 0x1000093F0, symSize: 0x40 }
  - { offsetInCU: 0x11ECE, offset: 0x11ECE, size: 0x8, addend: 0x0, symName: __ZNKSt3__116reverse_iteratorIPNS_6vectorIP7tableroNS_9allocatorIS3_EEEEEptB7v160006Ev, symObjAddr: 0x55A0, symBinAddr: 0x100009430, symSize: 0x20 }
  - { offsetInCU: 0x11EF4, offset: 0x11EF4, size: 0x8, addend: 0x0, symName: __ZNSt3__128__exception_guard_exceptionsINS_29_AllocatorDestroyRangeReverseINS_9allocatorINS_6vectorIP7tableroNS2_IS5_EEEEEENS_16reverse_iteratorIPS7_EEEEED2B7v160006Ev, symObjAddr: 0x55C0, symBinAddr: 0x100009450, symSize: 0x40 }
  - { offsetInCU: 0x11F1E, offset: 0x11F1E, size: 0x8, addend: 0x0, symName: __ZNKSt3__129_AllocatorDestroyRangeReverseINS_9allocatorINS_6vectorIP7tableroNS1_IS4_EEEEEENS_16reverse_iteratorIPS6_EEEclB7v160006Ev, symObjAddr: 0x5600, symBinAddr: 0x100009490, symSize: 0xF0 }
  - { offsetInCU: 0x11F45, offset: 0x11F45, size: 0x8, addend: 0x0, symName: __ZNSt3__116reverse_iteratorINS0_IPNS_6vectorIP7tableroNS_9allocatorIS3_EEEEEEEC1B7v160006ES8_, symObjAddr: 0x5760, symBinAddr: 0x1000095F0, symSize: 0x30 }
  - { offsetInCU: 0x11F7D, offset: 0x11F7D, size: 0x8, addend: 0x0, symName: __ZNSt3__116allocator_traitsINS_9allocatorINS_6vectorIP7tableroNS1_IS4_EEEEEEE7destroyB7v160006IS6_vEEvRS7_PT_, symObjAddr: 0x57E0, symBinAddr: 0x100009670, symSize: 0x30 }
  - { offsetInCU: 0x11FBA, offset: 0x11FBA, size: 0x8, addend: 0x0, symName: __ZNSt3__116reverse_iteratorINS0_IPNS_6vectorIP7tableroNS_9allocatorIS3_EEEEEEEppB7v160006Ev, symObjAddr: 0x5830, symBinAddr: 0x1000096C0, symSize: 0x30 }
  - { offsetInCU: 0x11FE0, offset: 0x11FE0, size: 0x8, addend: 0x0, symName: __ZNKSt3__116reverse_iteratorINS0_IPNS_6vectorIP7tableroNS_9allocatorIS3_EEEEEEE4baseB7v160006Ev, symObjAddr: 0x5860, symBinAddr: 0x1000096F0, symSize: 0x20 }
  - { offsetInCU: 0x12006, offset: 0x12006, size: 0x8, addend: 0x0, symName: __ZNSt3__19allocatorINS_6vectorIP7tableroNS0_IS3_EEEEE7destroyB7v160006EPS5_, symObjAddr: 0x5880, symBinAddr: 0x100009710, symSize: 0x20 }
  - { offsetInCU: 0x1203F, offset: 0x1203F, size: 0x8, addend: 0x0, symName: __ZNSt3__119__to_address_helperINS_16reverse_iteratorINS1_IPNS_6vectorIP7tableroNS_9allocatorIS4_EEEEEEEEvE6__callB7v160006ERKSA_, symObjAddr: 0x58A0, symBinAddr: 0x100009730, symSize: 0x40 }
  - { offsetInCU: 0x12062, offset: 0x12062, size: 0x8, addend: 0x0, symName: __ZNKSt3__116reverse_iteratorINS0_IPNS_6vectorIP7tableroNS_9allocatorIS3_EEEEEEEptB7v160006Ev, symObjAddr: 0x58E0, symBinAddr: 0x100009770, symSize: 0x20 }
  - { offsetInCU: 0x12088, offset: 0x12088, size: 0x8, addend: 0x0, symName: __ZNKSt3__116reverse_iteratorINS0_IPNS_6vectorIP7tableroNS_9allocatorIS3_EEEEEEEdeB7v160006Ev, symObjAddr: 0x5900, symBinAddr: 0x100009790, symSize: 0x40 }
  - { offsetInCU: 0x120BC, offset: 0x120BC, size: 0x8, addend: 0x0, symName: __ZNSt3__116reverse_iteratorIPNS_6vectorIP7tableroNS_9allocatorIS3_EEEEEmmB7v160006Ev, symObjAddr: 0x5940, symBinAddr: 0x1000097D0, symSize: 0x20 }
  - { offsetInCU: 0x120E2, offset: 0x120E2, size: 0x8, addend: 0x0, symName: __ZNSt3__116reverse_iteratorINS0_IPNS_6vectorIP7tableroNS_9allocatorIS3_EEEEEEEC2B7v160006ES8_, symObjAddr: 0x5960, symBinAddr: 0x1000097F0, symSize: 0x40 }
  - { offsetInCU: 0x1211A, offset: 0x1211A, size: 0x8, addend: 0x0, symName: __ZNSt3__116reverse_iteratorIPNS_6vectorIP7tableroNS_9allocatorIS3_EEEEEC2B7v160006ES7_, symObjAddr: 0x59A0, symBinAddr: 0x100009830, symSize: 0x30 }
  - { offsetInCU: 0x12152, offset: 0x12152, size: 0x8, addend: 0x0, symName: __ZNSt3__114__split_bufferINS_6vectorIP7tableroNS_9allocatorIS3_EEEERNS4_IS6_EEED2Ev, symObjAddr: 0x59D0, symBinAddr: 0x100009860, symSize: 0x70 }
  - { offsetInCU: 0x1217E, offset: 0x1217E, size: 0x8, addend: 0x0, symName: __ZNSt3__114__split_bufferINS_6vectorIP7tableroNS_9allocatorIS3_EEEERNS4_IS6_EEE5clearB7v160006Ev, symObjAddr: 0x5A40, symBinAddr: 0x1000098D0, symSize: 0x20 }
  - { offsetInCU: 0x121A4, offset: 0x121A4, size: 0x8, addend: 0x0, symName: __ZNSt3__116allocator_traitsINS_9allocatorINS_6vectorIP7tableroNS1_IS4_EEEEEEE10deallocateB7v160006ERS7_PS6_m, symObjAddr: 0x5A60, symBinAddr: 0x1000098F0, symSize: 0x30 }
  - { offsetInCU: 0x121E6, offset: 0x121E6, size: 0x8, addend: 0x0, symName: __ZNKSt3__114__split_bufferINS_6vectorIP7tableroNS_9allocatorIS3_EEEERNS4_IS6_EEE8capacityB7v160006Ev, symObjAddr: 0x5A90, symBinAddr: 0x100009920, symSize: 0x40 }
  - { offsetInCU: 0x1220C, offset: 0x1220C, size: 0x8, addend: 0x0, symName: __ZNSt3__114__split_bufferINS_6vectorIP7tableroNS_9allocatorIS3_EEEERNS4_IS6_EEE17__destruct_at_endB7v160006EPS6_, symObjAddr: 0x5AD0, symBinAddr: 0x100009960, symSize: 0x30 }
  - { offsetInCU: 0x12240, offset: 0x12240, size: 0x8, addend: 0x0, symName: __ZNSt3__114__split_bufferINS_6vectorIP7tableroNS_9allocatorIS3_EEEERNS4_IS6_EEE17__destruct_at_endB7v160006EPS6_NS_17integral_constantIbLb0EEE, symObjAddr: 0x5B00, symBinAddr: 0x100009990, symSize: 0x80 }
  - { offsetInCU: 0x12280, offset: 0x12280, size: 0x8, addend: 0x0, symName: __ZNSt3__19allocatorINS_6vectorIP7tableroNS0_IS3_EEEEE10deallocateB7v160006EPS5_m, symObjAddr: 0x5B80, symBinAddr: 0x100009A10, symSize: 0x50 }
  - { offsetInCU: 0x122C2, offset: 0x122C2, size: 0x8, addend: 0x0, symName: __ZNKSt3__114__split_bufferINS_6vectorIP7tableroNS_9allocatorIS3_EEEERNS4_IS6_EEE9__end_capB7v160006Ev, symObjAddr: 0x5BD0, symBinAddr: 0x100009A60, symSize: 0x20 }
  - { offsetInCU: 0x122E8, offset: 0x122E8, size: 0x8, addend: 0x0, symName: __ZNKSt3__117__compressed_pairIPNS_6vectorIP7tableroNS_9allocatorIS3_EEEERNS4_IS6_EEE5firstB7v160006Ev, symObjAddr: 0x5BF0, symBinAddr: 0x100009A80, symSize: 0x20 }
  - { offsetInCU: 0x1230E, offset: 0x1230E, size: 0x8, addend: 0x0, symName: __ZNSt3__16vectorIP7tableroNS_9allocatorIS2_EEED2B7v160006Ev, symObjAddr: 0x5C10, symBinAddr: 0x100009AA0, symSize: 0x40 }
  - { offsetInCU: 0x12338, offset: 0x12338, size: 0x8, addend: 0x0, symName: __ZNSt3__16vectorINS0_IP7tableroNS_9allocatorIS2_EEEENS3_IS5_EEED2B7v160006Ev, symObjAddr: 0x5C50, symBinAddr: 0x100009AE0, symSize: 0x40 }
  - { offsetInCU: 0x12362, offset: 0x12362, size: 0x8, addend: 0x0, symName: __ZNSt3__16vectorINS0_IP7tableroNS_9allocatorIS2_EEEENS3_IS5_EEE16__destroy_vectorC1ERS7_, symObjAddr: 0x5C90, symBinAddr: 0x100009B20, symSize: 0x30 }
  - { offsetInCU: 0x1239B, offset: 0x1239B, size: 0x8, addend: 0x0, symName: __ZNSt3__16vectorINS0_IP7tableroNS_9allocatorIS2_EEEENS3_IS5_EEE16__destroy_vectorclB7v160006Ev, symObjAddr: 0x5CC0, symBinAddr: 0x100009B50, symSize: 0x90 }
  - { offsetInCU: 0x123C1, offset: 0x123C1, size: 0x8, addend: 0x0, symName: __ZNSt3__16vectorINS0_IP7tableroNS_9allocatorIS2_EEEENS3_IS5_EEE16__destroy_vectorC2ERS7_, symObjAddr: 0x5D50, symBinAddr: 0x100009BE0, symSize: 0x20 }
  - { offsetInCU: 0x123FA, offset: 0x123FA, size: 0x8, addend: 0x0, symName: __ZNSt3__16vectorINS0_IP7tableroNS_9allocatorIS2_EEEENS3_IS5_EEE7__clearB7v160006Ev, symObjAddr: 0x5D80, symBinAddr: 0x100009C10, symSize: 0x20 }
  - { offsetInCU: 0x12420, offset: 0x12420, size: 0x8, addend: 0x0, symName: __ZNSt3__16vectorINS0_IP7tableroNS_9allocatorIS2_EEEENS3_IS5_EEE22__base_destruct_at_endB7v160006EPS5_, symObjAddr: 0x5DA0, symBinAddr: 0x100009C30, symSize: 0x80 }
  - { offsetInCU: 0x12464, offset: 0x12464, size: 0x8, addend: 0x0, symName: __ZNSt3__16vectorINS0_IP7tableroNS_9allocatorIS2_EEEENS3_IS5_EEEixB7v160006Em, symObjAddr: 0x5E20, symBinAddr: 0x100009CB0, symSize: 0x20 }
  - { offsetInCU: 0x1249A, offset: 0x1249A, size: 0x8, addend: 0x0, symName: __ZNSt3__16vectorIP7tableroNS_9allocatorIS2_EEEixB7v160006Em, symObjAddr: 0x5E40, symBinAddr: 0x100009CD0, symSize: 0x20 }
  - { offsetInCU: 0x124D0, offset: 0x124D0, size: 0x8, addend: 0x0, symName: __ZN7tableroaSERKS_, symObjAddr: 0x5E60, symBinAddr: 0x100009CF0, symSize: 0x1E0 }
  - { offsetInCU: 0x12578, offset: 0x12578, size: 0x8, addend: 0x0, symName: __ZN6mmTreeD2Ev, symObjAddr: 0x6040, symBinAddr: 0x100009ED0, symSize: 0x20 }
  - { offsetInCU: 0x125A4, offset: 0x125A4, size: 0x8, addend: 0x0, symName: __ZN7tableroD2Ev, symObjAddr: 0x6060, symBinAddr: 0x100009EF0, symSize: 0xA0 }
  - { offsetInCU: 0x125EB, offset: 0x125EB, size: 0x8, addend: 0x0, symName: __ZNSt3__110lock_guardINS_5mutexEEC2B7v160006ERS1_, symObjAddr: 0x6100, symBinAddr: 0x100009F90, symSize: 0x30 }
  - { offsetInCU: 0x12623, offset: 0x12623, size: 0x8, addend: 0x0, symName: __ZNSt3__110lock_guardINS_5mutexEED2B7v160006Ev, symObjAddr: 0x6130, symBinAddr: 0x100009FC0, symSize: 0x20 }
  - { offsetInCU: 0x1264D, offset: 0x1264D, size: 0x8, addend: 0x0, symName: __ZNSt3__111char_traitsIcE6lengthEPKc, symObjAddr: 0x6340, symBinAddr: 0x10000A1D0, symSize: 0x30 }
  - { offsetInCU: 0x1268E, offset: 0x1268E, size: 0x8, addend: 0x0, symName: __ZNKSt3__113basic_ostreamIcNS_11char_traitsIcEEE6sentrycvbB7v160006Ev, symObjAddr: 0x6370, symBinAddr: 0x10000A200, symSize: 0x20 }
  - { offsetInCU: 0x126B4, offset: 0x126B4, size: 0x8, addend: 0x0, symName: __ZNSt3__119ostreambuf_iteratorIcNS_11char_traitsIcEEEC1B7v160006ERNS_13basic_ostreamIcS2_EE, symObjAddr: 0x65B0, symBinAddr: 0x10000A440, symSize: 0x30 }
  - { offsetInCU: 0x126EC, offset: 0x126EC, size: 0x8, addend: 0x0, symName: __ZNKSt3__18ios_base5flagsB7v160006Ev, symObjAddr: 0x65E0, symBinAddr: 0x10000A470, symSize: 0x20 }
  - { offsetInCU: 0x12713, offset: 0x12713, size: 0x8, addend: 0x0, symName: __ZNKSt3__19basic_iosIcNS_11char_traitsIcEEE4fillB7v160006Ev, symObjAddr: 0x6600, symBinAddr: 0x10000A490, symSize: 0x70 }
  - { offsetInCU: 0x1273A, offset: 0x1273A, size: 0x8, addend: 0x0, symName: __ZNKSt3__119ostreambuf_iteratorIcNS_11char_traitsIcEEE6failedB7v160006Ev, symObjAddr: 0x6670, symBinAddr: 0x10000A500, symSize: 0x20 }
  - { offsetInCU: 0x12760, offset: 0x12760, size: 0x8, addend: 0x0, symName: __ZNSt3__19basic_iosIcNS_11char_traitsIcEEE8setstateB7v160006Ej, symObjAddr: 0x6690, symBinAddr: 0x10000A520, symSize: 0x30 }
  - { offsetInCU: 0x12795, offset: 0x12795, size: 0x8, addend: 0x0, symName: __ZNKSt3__18ios_base5widthB7v160006Ev, symObjAddr: 0x66C0, symBinAddr: 0x10000A550, symSize: 0x20 }
  - { offsetInCU: 0x127BC, offset: 0x127BC, size: 0x8, addend: 0x0, symName: __ZNSt3__115basic_streambufIcNS_11char_traitsIcEEE5sputnB7v160006EPKcl, symObjAddr: 0x66E0, symBinAddr: 0x10000A570, symSize: 0x30 }
  - { offsetInCU: 0x127FE, offset: 0x127FE, size: 0x8, addend: 0x0, symName: __ZNSt3__112basic_stringIcNS_11char_traitsIcEENS_9allocatorIcEEEC1B7v160006Emc, symObjAddr: 0x6710, symBinAddr: 0x10000A5A0, symSize: 0x30 }
  - { offsetInCU: 0x12846, offset: 0x12846, size: 0x8, addend: 0x0, symName: __ZNKSt3__112basic_stringIcNS_11char_traitsIcEENS_9allocatorIcEEE4dataB7v160006Ev, symObjAddr: 0x6740, symBinAddr: 0x10000A5D0, symSize: 0x30 }
  - { offsetInCU: 0x1286C, offset: 0x1286C, size: 0x8, addend: 0x0, symName: __ZNSt3__18ios_base5widthB7v160006El, symObjAddr: 0x6770, symBinAddr: 0x10000A600, symSize: 0x30 }
  - { offsetInCU: 0x128B1, offset: 0x128B1, size: 0x8, addend: 0x0, symName: __ZNSt3__112basic_stringIcNS_11char_traitsIcEENS_9allocatorIcEEEC2B7v160006Emc, symObjAddr: 0x67A0, symBinAddr: 0x10000A630, symSize: 0x50 }
  - { offsetInCU: 0x128F9, offset: 0x128F9, size: 0x8, addend: 0x0, symName: __ZNSt3__117__compressed_pairINS_12basic_stringIcNS_11char_traitsIcEENS_9allocatorIcEEE5__repES5_EC1B7v160006INS_18__default_init_tagESA_EEOT_OT0_, symObjAddr: 0x67F0, symBinAddr: 0x10000A680, symSize: 0x30 }
  - { offsetInCU: 0x12951, offset: 0x12951, size: 0x8, addend: 0x0, symName: __ZNSt3__117__compressed_pairINS_12basic_stringIcNS_11char_traitsIcEENS_9allocatorIcEEE5__repES5_EC2B7v160006INS_18__default_init_tagESA_EEOT_OT0_, symObjAddr: 0x6830, symBinAddr: 0x10000A6C0, symSize: 0x30 }
  - { offsetInCU: 0x129A9, offset: 0x129A9, size: 0x8, addend: 0x0, symName: __ZNSt3__122__compressed_pair_elemINS_12basic_stringIcNS_11char_traitsIcEENS_9allocatorIcEEE5__repELi0ELb0EEC2B7v160006ENS_18__default_init_tagE, symObjAddr: 0x6860, symBinAddr: 0x10000A6F0, symSize: 0x10 }
  - { offsetInCU: 0x129DE, offset: 0x129DE, size: 0x8, addend: 0x0, symName: __ZNSt3__122__compressed_pair_elemINS_9allocatorIcEELi1ELb1EEC2B7v160006ENS_18__default_init_tagE, symObjAddr: 0x6870, symBinAddr: 0x10000A700, symSize: 0x20 }
  - { offsetInCU: 0x12A13, offset: 0x12A13, size: 0x8, addend: 0x0, symName: __ZNSt3__19allocatorIcEC2B7v160006Ev, symObjAddr: 0x6890, symBinAddr: 0x10000A720, symSize: 0x20 }
  - { offsetInCU: 0x12A3D, offset: 0x12A3D, size: 0x8, addend: 0x0, symName: __ZNSt3__116__non_trivial_ifILb1ENS_9allocatorIcEEEC2B7v160006Ev, symObjAddr: 0x68B0, symBinAddr: 0x10000A740, symSize: 0x10 }
  - { offsetInCU: 0x12A67, offset: 0x12A67, size: 0x8, addend: 0x0, symName: __ZNKSt3__112basic_stringIcNS_11char_traitsIcEENS_9allocatorIcEEE13__get_pointerB7v160006Ev, symObjAddr: 0x68D0, symBinAddr: 0x10000A760, symSize: 0x50 }
  - { offsetInCU: 0x12A8D, offset: 0x12A8D, size: 0x8, addend: 0x0, symName: __ZNKSt3__112basic_stringIcNS_11char_traitsIcEENS_9allocatorIcEEE9__is_longB7v160006Ev, symObjAddr: 0x6920, symBinAddr: 0x10000A7B0, symSize: 0x30 }
  - { offsetInCU: 0x12AB3, offset: 0x12AB3, size: 0x8, addend: 0x0, symName: __ZNKSt3__112basic_stringIcNS_11char_traitsIcEENS_9allocatorIcEEE18__get_long_pointerB7v160006Ev, symObjAddr: 0x6950, symBinAddr: 0x10000A7E0, symSize: 0x20 }
  - { offsetInCU: 0x12AD9, offset: 0x12AD9, size: 0x8, addend: 0x0, symName: __ZNKSt3__112basic_stringIcNS_11char_traitsIcEENS_9allocatorIcEEE19__get_short_pointerB7v160006Ev, symObjAddr: 0x6970, symBinAddr: 0x10000A800, symSize: 0x30 }
  - { offsetInCU: 0x12AFF, offset: 0x12AFF, size: 0x8, addend: 0x0, symName: __ZNKSt3__117__compressed_pairINS_12basic_stringIcNS_11char_traitsIcEENS_9allocatorIcEEE5__repES5_E5firstB7v160006Ev, symObjAddr: 0x69A0, symBinAddr: 0x10000A830, symSize: 0x20 }
  - { offsetInCU: 0x12B25, offset: 0x12B25, size: 0x8, addend: 0x0, symName: __ZNKSt3__122__compressed_pair_elemINS_12basic_stringIcNS_11char_traitsIcEENS_9allocatorIcEEE5__repELi0ELb0EE5__getB7v160006Ev, symObjAddr: 0x69C0, symBinAddr: 0x10000A850, symSize: 0x10 }
  - { offsetInCU: 0x12B4B, offset: 0x12B4B, size: 0x8, addend: 0x0, symName: __ZNSt3__114pointer_traitsIPKcE10pointer_toB7v160006ERS1_, symObjAddr: 0x69D0, symBinAddr: 0x10000A860, symSize: 0x10 }
  - { offsetInCU: 0x12B6E, offset: 0x12B6E, size: 0x8, addend: 0x0, symName: __ZNSt3__119ostreambuf_iteratorIcNS_11char_traitsIcEEEC2B7v160006ERNS_13basic_ostreamIcS2_EE, symObjAddr: 0x69E0, symBinAddr: 0x10000A870, symSize: 0x50 }
  - { offsetInCU: 0x12BA6, offset: 0x12BA6, size: 0x8, addend: 0x0, symName: __ZNKSt3__19basic_iosIcNS_11char_traitsIcEEE5rdbufB7v160006Ev, symObjAddr: 0x6A30, symBinAddr: 0x10000A8C0, symSize: 0x20 }
  - { offsetInCU: 0x12BCD, offset: 0x12BCD, size: 0x8, addend: 0x0, symName: __ZNKSt3__18ios_base5rdbufB7v160006Ev, symObjAddr: 0x6A50, symBinAddr: 0x10000A8E0, symSize: 0x20 }
  - { offsetInCU: 0x12BF3, offset: 0x12BF3, size: 0x8, addend: 0x0, symName: __ZNSt3__111char_traitsIcE11eq_int_typeEii, symObjAddr: 0x6A70, symBinAddr: 0x10000A900, symSize: 0x20 }
  - { offsetInCU: 0x12C24, offset: 0x12C24, size: 0x8, addend: 0x0, symName: __ZNSt3__111char_traitsIcE3eofEv, symObjAddr: 0x6A90, symBinAddr: 0x10000A920, symSize: 0x10 }
  - { offsetInCU: 0x12C38, offset: 0x12C38, size: 0x8, addend: 0x0, symName: __ZNKSt3__19basic_iosIcNS_11char_traitsIcEEE5widenB7v160006Ec, symObjAddr: 0x6AA0, symBinAddr: 0x10000A930, symSize: 0x80 }
  - { offsetInCU: 0x12CA5, offset: 0x12CA5, size: 0x8, addend: 0x0, symName: __ZNKSt3__15ctypeIcE5widenB7v160006Ec, symObjAddr: 0x6B50, symBinAddr: 0x10000A9E0, symSize: 0x30 }
  - { offsetInCU: 0x12CDA, offset: 0x12CDA, size: 0x8, addend: 0x0, symName: __ZNSt3__18ios_base8setstateB7v160006Ej, symObjAddr: 0x6B80, symBinAddr: 0x10000AA10, symSize: 0x30 }
  - { offsetInCU: 0x12D10, offset: 0x12D10, size: 0x8, addend: 0x0, symName: __ZNSt3__16threadC2IM7tableroFvvEJPS2_EvEEOT_DpOT0_, symObjAddr: 0x6BD0, symBinAddr: 0x10000AA60, symSize: 0x150 }
  - { offsetInCU: 0x12DA0, offset: 0x12DA0, size: 0x8, addend: 0x0, symName: __ZNSt3__110unique_ptrINS_15__thread_structENS_14default_deleteIS1_EEEC1B7v160006ILb1EvEEPS1_, symObjAddr: 0x6D20, symBinAddr: 0x10000ABB0, symSize: 0x30 }
  - { offsetInCU: 0x12DE3, offset: 0x12DE3, size: 0x8, addend: 0x0, symName: __ZNSt3__15tupleIJNS_10unique_ptrINS_15__thread_structENS_14default_deleteIS2_EEEEM7tableroFvvEPS6_EEC1B7v160006IJS5_S8_S9_ELi0EEEDpOT_, symObjAddr: 0x6D50, symBinAddr: 0x10000ABE0, symSize: 0x40 }
  - { offsetInCU: 0x12EE6, offset: 0x12EE6, size: 0x8, addend: 0x0, symName: __ZNSt3__110unique_ptrINS_5tupleIJNS0_INS_15__thread_structENS_14default_deleteIS2_EEEEM7tableroFvvEPS6_EEENS3_ISA_EEEC1B7v160006ILb1EvEEPSA_, symObjAddr: 0x6D90, symBinAddr: 0x10000AC20, symSize: 0x30 }
  - { offsetInCU: 0x12F29, offset: 0x12F29, size: 0x8, addend: 0x0, symName: __ZNKSt3__110unique_ptrINS_5tupleIJNS0_INS_15__thread_structENS_14default_deleteIS2_EEEEM7tableroFvvEPS6_EEENS3_ISA_EEE3getB7v160006Ev, symObjAddr: 0x6E90, symBinAddr: 0x10000AD20, symSize: 0x20 }
  - { offsetInCU: 0x12F4F, offset: 0x12F4F, size: 0x8, addend: 0x0, symName: __ZNSt3__110unique_ptrINS_5tupleIJNS0_INS_15__thread_structENS_14default_deleteIS2_EEEEM7tableroFvvEPS6_EEENS3_ISA_EEE7releaseB7v160006Ev, symObjAddr: 0x6EB0, symBinAddr: 0x10000AD40, symSize: 0x40 }
  - { offsetInCU: 0x12F84, offset: 0x12F84, size: 0x8, addend: 0x0, symName: __ZNSt3__110unique_ptrINS_5tupleIJNS0_INS_15__thread_structENS_14default_deleteIS2_EEEEM7tableroFvvEPS6_EEENS3_ISA_EEED1B7v160006Ev, symObjAddr: 0x6EF0, symBinAddr: 0x10000AD80, symSize: 0x20 }
  - { offsetInCU: 0x12FAE, offset: 0x12FAE, size: 0x8, addend: 0x0, symName: __ZNSt3__110unique_ptrINS_15__thread_structENS_14default_deleteIS1_EEED1B7v160006Ev, symObjAddr: 0x6F10, symBinAddr: 0x10000ADA0, symSize: 0x20 }
  - { offsetInCU: 0x12FD8, offset: 0x12FD8, size: 0x8, addend: 0x0, symName: __ZNSt3__110unique_ptrINS_15__thread_structENS_14default_deleteIS1_EEEC2B7v160006ILb1EvEEPS1_, symObjAddr: 0x6F30, symBinAddr: 0x10000ADC0, symSize: 0x40 }
  - { offsetInCU: 0x13020, offset: 0x13020, size: 0x8, addend: 0x0, symName: __ZNSt3__117__compressed_pairIPNS_15__thread_structENS_14default_deleteIS1_EEEC1B7v160006IRS2_NS_16__value_init_tagEEEOT_OT0_, symObjAddr: 0x6F70, symBinAddr: 0x10000AE00, symSize: 0x30 }
  - { offsetInCU: 0x13078, offset: 0x13078, size: 0x8, addend: 0x0, symName: __ZNSt3__117__compressed_pairIPNS_15__thread_structENS_14default_deleteIS1_EEEC2B7v160006IRS2_NS_16__value_init_tagEEEOT_OT0_, symObjAddr: 0x6FA0, symBinAddr: 0x10000AE30, symSize: 0x40 }
  - { offsetInCU: 0x130D0, offset: 0x130D0, size: 0x8, addend: 0x0, symName: __ZNSt3__122__compressed_pair_elemIPNS_15__thread_structELi0ELb0EEC2B7v160006IRS2_vEEOT_, symObjAddr: 0x6FE0, symBinAddr: 0x10000AE70, symSize: 0x20 }
  - { offsetInCU: 0x13112, offset: 0x13112, size: 0x8, addend: 0x0, symName: __ZNSt3__122__compressed_pair_elemINS_14default_deleteINS_15__thread_structEEELi1ELb1EEC2B7v160006ENS_16__value_init_tagE, symObjAddr: 0x7000, symBinAddr: 0x10000AE90, symSize: 0x10 }
  - { offsetInCU: 0x13147, offset: 0x13147, size: 0x8, addend: 0x0, symName: __ZNSt3__15tupleIJNS_10unique_ptrINS_15__thread_structENS_14default_deleteIS2_EEEEM7tableroFvvEPS6_EEC2B7v160006IJS5_S8_S9_ELi0EEEDpOT_, symObjAddr: 0x7010, symBinAddr: 0x10000AEA0, symSize: 0x40 }
  - { offsetInCU: 0x131B9, offset: 0x131B9, size: 0x8, addend: 0x0, symName: __ZNSt3__112__tuple_implINS_15__tuple_indicesIJLm0ELm1ELm2EEEEJNS_10unique_ptrINS_15__thread_structENS_14default_deleteIS4_EEEEM7tableroFvvEPS8_EEC1B7v160006IJLm0ELm1ELm2EEJS7_SA_SB_EJEJEJS7_SA_SB_EEENS1_IJXspT_EEEENS_13__tuple_typesIJDpT0_EEENS1_IJXspT1_EEEENSF_IJDpT2_EEEDpOT3_, symObjAddr: 0x7050, symBinAddr: 0x10000AEE0, symSize: 0x40 }
  - { offsetInCU: 0x13288, offset: 0x13288, size: 0x8, addend: 0x0, symName: __ZNSt3__112__tuple_implINS_15__tuple_indicesIJLm0ELm1ELm2EEEEJNS_10unique_ptrINS_15__thread_structENS_14default_deleteIS4_EEEEM7tableroFvvEPS8_EEC2B7v160006IJLm0ELm1ELm2EEJS7_SA_SB_EJEJEJS7_SA_SB_EEENS1_IJXspT_EEEENS_13__tuple_typesIJDpT0_EEENS1_IJXspT1_EEEENSF_IJDpT2_EEEDpOT3_, symObjAddr: 0x7090, symBinAddr: 0x10000AF20, symSize: 0x60 }
  - { offsetInCU: 0x13357, offset: 0x13357, size: 0x8, addend: 0x0, symName: __ZNSt3__112__tuple_leafILm0ENS_10unique_ptrINS_15__thread_structENS_14default_deleteIS2_EEEELb0EEC2B7v160006IS5_vEEOT_, symObjAddr: 0x70F0, symBinAddr: 0x10000AF80, symSize: 0x30 }
  - { offsetInCU: 0x1339A, offset: 0x1339A, size: 0x8, addend: 0x0, symName: __ZNSt3__112__tuple_leafILm1EM7tableroFvvELb0EEC2B7v160006IS3_vEEOT_, symObjAddr: 0x7120, symBinAddr: 0x10000AFB0, symSize: 0x30 }
  - { offsetInCU: 0x133DD, offset: 0x133DD, size: 0x8, addend: 0x0, symName: __ZNSt3__112__tuple_leafILm2EP7tableroLb0EEC2B7v160006IS2_vEEOT_, symObjAddr: 0x7150, symBinAddr: 0x10000AFE0, symSize: 0x20 }
  - { offsetInCU: 0x13420, offset: 0x13420, size: 0x8, addend: 0x0, symName: __ZNSt3__110unique_ptrINS_15__thread_structENS_14default_deleteIS1_EEEC1B7v160006EOS4_, symObjAddr: 0x7170, symBinAddr: 0x10000B000, symSize: 0x30 }
  - { offsetInCU: 0x13458, offset: 0x13458, size: 0x8, addend: 0x0, symName: __ZNSt3__110unique_ptrINS_15__thread_structENS_14default_deleteIS1_EEEC2B7v160006EOS4_, symObjAddr: 0x71A0, symBinAddr: 0x10000B030, symSize: 0x60 }
  - { offsetInCU: 0x13490, offset: 0x13490, size: 0x8, addend: 0x0, symName: __ZNSt3__110unique_ptrINS_15__thread_structENS_14default_deleteIS1_EEE7releaseB7v160006Ev, symObjAddr: 0x7200, symBinAddr: 0x10000B090, symSize: 0x40 }
  - { offsetInCU: 0x134C5, offset: 0x134C5, size: 0x8, addend: 0x0, symName: __ZNSt3__110unique_ptrINS_15__thread_structENS_14default_deleteIS1_EEE11get_deleterB7v160006Ev, symObjAddr: 0x7240, symBinAddr: 0x10000B0D0, symSize: 0x20 }
  - { offsetInCU: 0x134F5, offset: 0x134F5, size: 0x8, addend: 0x0, symName: __ZNSt3__117__compressed_pairIPNS_15__thread_structENS_14default_deleteIS1_EEEC1B7v160006IS2_S4_EEOT_OT0_, symObjAddr: 0x7260, symBinAddr: 0x10000B0F0, symSize: 0x30 }
  - { offsetInCU: 0x1354D, offset: 0x1354D, size: 0x8, addend: 0x0, symName: __ZNSt3__117__compressed_pairIPNS_15__thread_structENS_14default_deleteIS1_EEE5firstB7v160006Ev, symObjAddr: 0x7290, symBinAddr: 0x10000B120, symSize: 0x20 }
  - { offsetInCU: 0x13573, offset: 0x13573, size: 0x8, addend: 0x0, symName: __ZNSt3__122__compressed_pair_elemIPNS_15__thread_structELi0ELb0EE5__getB7v160006Ev, symObjAddr: 0x72B0, symBinAddr: 0x10000B140, symSize: 0x10 }
  - { offsetInCU: 0x13599, offset: 0x13599, size: 0x8, addend: 0x0, symName: __ZNSt3__117__compressed_pairIPNS_15__thread_structENS_14default_deleteIS1_EEE6secondB7v160006Ev, symObjAddr: 0x72C0, symBinAddr: 0x10000B150, symSize: 0x20 }
  - { offsetInCU: 0x135BF, offset: 0x135BF, size: 0x8, addend: 0x0, symName: __ZNSt3__122__compressed_pair_elemINS_14default_deleteINS_15__thread_structEEELi1ELb1EE5__getB7v160006Ev, symObjAddr: 0x72E0, symBinAddr: 0x10000B170, symSize: 0x10 }
  - { offsetInCU: 0x135E5, offset: 0x135E5, size: 0x8, addend: 0x0, symName: __ZNSt3__117__compressed_pairIPNS_15__thread_structENS_14default_deleteIS1_EEEC2B7v160006IS2_S4_EEOT_OT0_, symObjAddr: 0x72F0, symBinAddr: 0x10000B180, symSize: 0x40 }
  - { offsetInCU: 0x1363D, offset: 0x1363D, size: 0x8, addend: 0x0, symName: __ZNSt3__122__compressed_pair_elemIPNS_15__thread_structELi0ELb0EEC2B7v160006IS2_vEEOT_, symObjAddr: 0x7330, symBinAddr: 0x10000B1C0, symSize: 0x20 }
  - { offsetInCU: 0x1367F, offset: 0x1367F, size: 0x8, addend: 0x0, symName: __ZNSt3__122__compressed_pair_elemINS_14default_deleteINS_15__thread_structEEELi1ELb1EEC2B7v160006IS3_vEEOT_, symObjAddr: 0x7350, symBinAddr: 0x10000B1E0, symSize: 0x10 }
  - { offsetInCU: 0x136C1, offset: 0x136C1, size: 0x8, addend: 0x0, symName: __ZNSt3__110unique_ptrINS_5tupleIJNS0_INS_15__thread_structENS_14default_deleteIS2_EEEEM7tableroFvvEPS6_EEENS3_ISA_EEEC2B7v160006ILb1EvEEPSA_, symObjAddr: 0x7360, symBinAddr: 0x10000B1F0, symSize: 0x40 }
  - { offsetInCU: 0x13704, offset: 0x13704, size: 0x8, addend: 0x0, symName: __ZNSt3__117__compressed_pairIPNS_5tupleIJNS_10unique_ptrINS_15__thread_structENS_14default_deleteIS3_EEEEM7tableroFvvEPS7_EEENS4_ISB_EEEC1B7v160006IRSC_NS_16__value_init_tagEEEOT_OT0_, symObjAddr: 0x73A0, symBinAddr: 0x10000B230, symSize: 0x30 }
  - { offsetInCU: 0x1375C, offset: 0x1375C, size: 0x8, addend: 0x0, symName: __ZNSt3__117__compressed_pairIPNS_5tupleIJNS_10unique_ptrINS_15__thread_structENS_14default_deleteIS3_EEEEM7tableroFvvEPS7_EEENS4_ISB_EEEC2B7v160006IRSC_NS_16__value_init_tagEEEOT_OT0_, symObjAddr: 0x73D0, symBinAddr: 0x10000B260, symSize: 0x40 }
  - { offsetInCU: 0x137B4, offset: 0x137B4, size: 0x8, addend: 0x0, symName: __ZNSt3__122__compressed_pair_elemIPNS_5tupleIJNS_10unique_ptrINS_15__thread_structENS_14default_deleteIS3_EEEEM7tableroFvvEPS7_EEELi0ELb0EEC2B7v160006IRSC_vEEOT_, symObjAddr: 0x7410, symBinAddr: 0x10000B2A0, symSize: 0x20 }
  - { offsetInCU: 0x137F6, offset: 0x137F6, size: 0x8, addend: 0x0, symName: __ZNSt3__122__compressed_pair_elemINS_14default_deleteINS_5tupleIJNS_10unique_ptrINS_15__thread_structENS1_IS4_EEEEM7tableroFvvEPS7_EEEEELi1ELb1EEC2B7v160006ENS_16__value_init_tagE, symObjAddr: 0x7430, symBinAddr: 0x10000B2C0, symSize: 0x10 }
  - { offsetInCU: 0x1385A, offset: 0x1385A, size: 0x8, addend: 0x0, symName: __ZNSt3__121__thread_specific_ptrINS_15__thread_structEE11set_pointerEPS1_, symObjAddr: 0x7440, symBinAddr: 0x10000B2D0, symSize: 0x30 }
  - { offsetInCU: 0x1388F, offset: 0x1388F, size: 0x8, addend: 0x0, symName: __ZNSt3__112__tuple_leafILm0ENS_10unique_ptrINS_15__thread_structENS_14default_deleteIS2_EEEELb0EE3getB7v160006Ev, symObjAddr: 0x7500, symBinAddr: 0x10000B390, symSize: 0x10 }
  - { offsetInCU: 0x138B5, offset: 0x138B5, size: 0x8, addend: 0x0, symName: __ZNSt3__112__tuple_leafILm1EM7tableroFvvELb0EE3getB7v160006Ev, symObjAddr: 0x75C0, symBinAddr: 0x10000B450, symSize: 0x10 }
  - { offsetInCU: 0x138DB, offset: 0x138DB, size: 0x8, addend: 0x0, symName: __ZNSt3__112__tuple_leafILm2EP7tableroLb0EE3getB7v160006Ev, symObjAddr: 0x75D0, symBinAddr: 0x10000B460, symSize: 0x10 }
  - { offsetInCU: 0x13901, offset: 0x13901, size: 0x8, addend: 0x0, symName: __ZNKSt3__117__compressed_pairIPNS_5tupleIJNS_10unique_ptrINS_15__thread_structENS_14default_deleteIS3_EEEEM7tableroFvvEPS7_EEENS4_ISB_EEE5firstB7v160006Ev, symObjAddr: 0x75E0, symBinAddr: 0x10000B470, symSize: 0x20 }
  - { offsetInCU: 0x13927, offset: 0x13927, size: 0x8, addend: 0x0, symName: __ZNKSt3__122__compressed_pair_elemIPNS_5tupleIJNS_10unique_ptrINS_15__thread_structENS_14default_deleteIS3_EEEEM7tableroFvvEPS7_EEELi0ELb0EE5__getB7v160006Ev, symObjAddr: 0x7600, symBinAddr: 0x10000B490, symSize: 0x10 }
  - { offsetInCU: 0x1394D, offset: 0x1394D, size: 0x8, addend: 0x0, symName: __ZNSt3__117__compressed_pairIPNS_5tupleIJNS_10unique_ptrINS_15__thread_structENS_14default_deleteIS3_EEEEM7tableroFvvEPS7_EEENS4_ISB_EEE5firstB7v160006Ev, symObjAddr: 0x7610, symBinAddr: 0x10000B4A0, symSize: 0x20 }
  - { offsetInCU: 0x13973, offset: 0x13973, size: 0x8, addend: 0x0, symName: __ZNSt3__122__compressed_pair_elemIPNS_5tupleIJNS_10unique_ptrINS_15__thread_structENS_14default_deleteIS3_EEEEM7tableroFvvEPS7_EEELi0ELb0EE5__getB7v160006Ev, symObjAddr: 0x7630, symBinAddr: 0x10000B4C0, symSize: 0x10 }
  - { offsetInCU: 0x13999, offset: 0x13999, size: 0x8, addend: 0x0, symName: __ZNSt3__110unique_ptrINS_5tupleIJNS0_INS_15__thread_structENS_14default_deleteIS2_EEEEM7tableroFvvEPS6_EEENS3_ISA_EEED2B7v160006Ev, symObjAddr: 0x7640, symBinAddr: 0x10000B4D0, symSize: 0x20 }
  - { offsetInCU: 0x139C3, offset: 0x139C3, size: 0x8, addend: 0x0, symName: __ZNSt3__110unique_ptrINS_5tupleIJNS0_INS_15__thread_structENS_14default_deleteIS2_EEEEM7tableroFvvEPS6_EEENS3_ISA_EEE5resetB7v160006EPSA_, symObjAddr: 0x7660, symBinAddr: 0x10000B4F0, symSize: 0x70 }
  - { offsetInCU: 0x13A07, offset: 0x13A07, size: 0x8, addend: 0x0, symName: __ZNSt3__117__compressed_pairIPNS_5tupleIJNS_10unique_ptrINS_15__thread_structENS_14default_deleteIS3_EEEEM7tableroFvvEPS7_EEENS4_ISB_EEE6secondB7v160006Ev, symObjAddr: 0x76D0, symBinAddr: 0x10000B560, symSize: 0x20 }
  - { offsetInCU: 0x13A2D, offset: 0x13A2D, size: 0x8, addend: 0x0, symName: __ZNKSt3__114default_deleteINS_5tupleIJNS_10unique_ptrINS_15__thread_structENS0_IS3_EEEEM7tableroFvvEPS6_EEEEclB7v160006EPSA_, symObjAddr: 0x76F0, symBinAddr: 0x10000B580, symSize: 0x40 }
  - { offsetInCU: 0x13A61, offset: 0x13A61, size: 0x8, addend: 0x0, symName: __ZNSt3__122__compressed_pair_elemINS_14default_deleteINS_5tupleIJNS_10unique_ptrINS_15__thread_structENS1_IS4_EEEEM7tableroFvvEPS7_EEEEELi1ELb1EE5__getB7v160006Ev, symObjAddr: 0x7730, symBinAddr: 0x10000B5C0, symSize: 0x10 }
  - { offsetInCU: 0x13A87, offset: 0x13A87, size: 0x8, addend: 0x0, symName: __ZNSt3__15tupleIJNS_10unique_ptrINS_15__thread_structENS_14default_deleteIS2_EEEEM7tableroFvvEPS6_EED1Ev, symObjAddr: 0x7740, symBinAddr: 0x10000B5D0, symSize: 0x20 }
  - { offsetInCU: 0x13AB4, offset: 0x13AB4, size: 0x8, addend: 0x0, symName: __ZNSt3__15tupleIJNS_10unique_ptrINS_15__thread_structENS_14default_deleteIS2_EEEEM7tableroFvvEPS6_EED2Ev, symObjAddr: 0x7760, symBinAddr: 0x10000B5F0, symSize: 0x20 }
  - { offsetInCU: 0x13AE1, offset: 0x13AE1, size: 0x8, addend: 0x0, symName: __ZNSt3__112__tuple_implINS_15__tuple_indicesIJLm0ELm1ELm2EEEEJNS_10unique_ptrINS_15__thread_structENS_14default_deleteIS4_EEEEM7tableroFvvEPS8_EED1Ev, symObjAddr: 0x7780, symBinAddr: 0x10000B610, symSize: 0x20 }
  - { offsetInCU: 0x13B0E, offset: 0x13B0E, size: 0x8, addend: 0x0, symName: __ZNSt3__112__tuple_implINS_15__tuple_indicesIJLm0ELm1ELm2EEEEJNS_10unique_ptrINS_15__thread_structENS_14default_deleteIS4_EEEEM7tableroFvvEPS8_EED2Ev, symObjAddr: 0x77A0, symBinAddr: 0x10000B630, symSize: 0x20 }
  - { offsetInCU: 0x13B3B, offset: 0x13B3B, size: 0x8, addend: 0x0, symName: __ZNSt3__112__tuple_leafILm0ENS_10unique_ptrINS_15__thread_structENS_14default_deleteIS2_EEEELb0EED2Ev, symObjAddr: 0x77C0, symBinAddr: 0x10000B650, symSize: 0x20 }
  - { offsetInCU: 0x13B68, offset: 0x13B68, size: 0x8, addend: 0x0, symName: __ZNSt3__110unique_ptrINS_15__thread_structENS_14default_deleteIS1_EEED2B7v160006Ev, symObjAddr: 0x77E0, symBinAddr: 0x10000B670, symSize: 0x20 }
  - { offsetInCU: 0x13B92, offset: 0x13B92, size: 0x8, addend: 0x0, symName: __ZNSt3__110unique_ptrINS_15__thread_structENS_14default_deleteIS1_EEE5resetB7v160006EPS1_, symObjAddr: 0x7800, symBinAddr: 0x10000B690, symSize: 0x70 }
  - { offsetInCU: 0x13BD6, offset: 0x13BD6, size: 0x8, addend: 0x0, symName: __ZNKSt3__114default_deleteINS_15__thread_structEEclB7v160006EPS1_, symObjAddr: 0x7870, symBinAddr: 0x10000B700, symSize: 0x3A }
...
